(lp0
(dp1
S'name'
p2
VWes Moore
p3
sS'image'
p4
Vhttps://upload.wikimedia.org/wikipedia/commons/c/c5/Wes_Moore_credit_Amunankhra_House_Ltd.jpg
p5
sS'homepage_url'
p6
Vhttp://wesmoore.com
p7
sS'date_of_birth'
p8
V{{Birth date and age|1978|10|15}}
p9
sS'nationality'
p10
VAmerican
p11
sS'occupation'
p12
VAmerican author, social entrepreneur, producer, political analyst, and decorated US Army officer
p13
sa(dp14
g2
VDavid McCullough
p15
sg4
Vhttps://upload.wikimedia.org/wikipedia/en/4/4a/Commons-logo.svg
p16
sg6
S''
p17
sg8
V{{Birth date and age|1933|07|07}}
p18
sg10
VAmerican
p19
sg12
VHistorian, author
p20
sa(dp21
g2
VMindy Kaling
p22
sg4
Vhttps://upload.wikimedia.org/wikipedia/en/4/4a/Commons-logo.svg
p23
sg6
V{{URL|theconcernsofmindykaling.com}}
p24
sg8
V{{Birth date and age|1979|06|24|mf=y}}
p25
sg10
g17
sg12
VActress, comedian, writer
p26
sa(dp27
g2
VTyler Oakley
p28
sg4
Vhttps://upload.wikimedia.org/wikipedia/en/4/4a/Commons-logo.svg
p29
sg6
g17
sg8
V{{birth date and age|1989|03|22}}
p30
sg10
VAmerican
p31
sg12
g17
sa(dp32
g2
VSara Paretsky
p33
sg4
Vhttps://upload.wikimedia.org/wikipedia/commons/c/ca/SaraParetsky.jpg
p34
sg6
V{{URL|http://www.saraparetsky.com/}}
p35
sg8
V{{Birth date and age|1947|6|8|mf=y}}
p36
sg10
VAmerican
p37
sg12
VNovelist
p38
sa(dp39
g2
VDave Eggers
p40
sg4
Vhttps://upload.wikimedia.org/wikipedia/en/4/4a/Commons-logo.svg
p41
sg6
V{{URL|http://www.mcsweeneys.net}}
p42
sg8
V{{Birth date and age|1970|3|12|mf=y}}
p43
sg10
VAmerican
p44
sg12
VWriter, editor, publisher, philanthropist
p45
sa(dp46
g2
VChristopher Reich
p47
sg4
Vhttps://upload.wikimedia.org/wikipedia/commons/f/fd/Chris_reich_2008.jpg
p48
sg6
V{{URL|http://www.christopherreich.com}}
p49
sg8
V{{birth date and age|1961|11|12}}
p50
sg10
VAmerican
p51
sg12
VAuthor
p52
sa(dp53
g2
VHelen Rappaport
p54
sg4
Vhttps://upload.wikimedia.org/wikipedia/commons/1/16/Seacole_-_Challen.jpg
p55
sg6
V{{URL|helenrappaport.com}}
p56
sg8
V1947
p57
sg10
VBritish
p58
sg12
VAuthor and Historian
p59
sa(dp60
g2
VMark Steyn
p61
sg4
Vhttps://upload.wikimedia.org/wikipedia/en/6/69/P_vip.svg
p62
sg6
Vhttp://www.steynonline.com
p63
sg8
V{{Birth date and age|1959|12|8}}
p64
sg10
VCanadian
p65
sg12
Vcommentator
p66
sa(dp67
g2
VKaren Robards
p68
sg4
Vhttps://upload.wikimedia.org/wikipedia/en/a/a4/Flag_of_the_United_States.svg
p69
sg6
S'{{URL|http://www.karenrobards.com}}'
p70
sg8
S'{{Birth date and age|1954|08|24}}'
p71
sg10
S'American {{flagicon|USA}}'
p72
sg12
S'Novelist'
p73
sa(dp74
g2
VRebecca Wells
p75
sg4
g17
sg6
Vhttp://www.rebeccawellsbooks.com/
p76
sg8
VFebruary 3, 1953
p77
sg10
VUnited States
p78
sg12
VNovelist, actor, theater director
p79
sa(dp80
g2
VEric Metaxas
p81
sg4
Vhttps://upload.wikimedia.org/wikipedia/commons/1/1a/Eric_Metaxas_%26_Ben_Carson.jpg
p82
sg6
V{{URL|http://www.ericmetaxas.com}}
p83
sg8
V1963
p84
sg10
V
p85
sg12
g85
sa(dp86
g2
VJennifer Weiner
p87
sg4
Vhttps://upload.wikimedia.org/wikipedia/commons/3/33/Jennifer_weiner.png
p88
sg6
V{{URL|http://www.jenniferweiner.com/}}
p89
sg8
V{{birth date and age|1970|3|28|mf=y}}
p90
sg10
VAmerican
p91
sg12
VNovelist
p92
sa(dp93
g2
VKevin Smith
p94
sg4
Vhttps://upload.wikimedia.org/wikipedia/en/4/4a/Commons-logo.svg
p95
sg6
V{{url|viewaskew.com/}}
p96
sg8
V{{birth date and age|1970|8|2}}
p97
sg10
g17
sg12
VFilmmaker, actor, comedian, public speaker, comic book writer, author, podcaster
p98
sa(dp99
g2
VMelvyn Bragg
p100
sg4
Vhttps://upload.wikimedia.org/wikipedia/commons/7/76/Melvyn_Bragg_BBC_Radio4_Front_Row_1_May_2013_b01s4qr3.flac
p101
sg6
g17
sg8
V{{birth date and age|1939|10|6|df=y}}
p102
sg10
VBritish
p103
sg12
VBroadcaster, presenter, interviewer, commentator, novelist, scriptwriter<ref name="ba2010"/>
p104
sa(dp105
g2
VKay Hooper
p106
sg4
Vhttps://upload.wikimedia.org/wikipedia/commons/b/b4/Ambox_important.svg
p107
sg6
V{{URL|http://www.kayhooper.com/}}
p108
sg8
Vabout 1958
p109
sg10
VUnited States
p110
sg12
Vnovelist
p111
sa(dp112
g2
VFern Michaels
p113
sg4
g17
sg6
V{{URL|http://www.fernmichaels.com/}}
p114
sg8
V{{Birth date and age|1933|4|9}}
p115
sg10
VUnited States
p116
sg12
Vnovelist
p117
sa(dp118
g2
VDale Brown
p119
sg4
Vhttps://upload.wikimedia.org/wikipedia/en/6/69/P_vip.svg
p120
sg6
S'{{URL|megafortress.com}}'
p121
sg8
S'{{birth date and age|1956|11|2}}'
p122
sg10
g17
sg12
S'Novelist'
p123
sa(dp124
g2
VThomas Keneally
p125
sg4
Vhttps://upload.wikimedia.org/wikipedia/commons/f/fb/Thomas_Keneally_BBC_Radio4_Bookclub_2_Dec_2007_b008d2x2.flac
p126
sg6
g85
sg8
V{{birth date and age|1935|10|7|df=y}}
p127
sg10
VAustralia
p128
sg12
VNovelist
p129
sa(dp130
g2
VAnne Rivers Siddons
p131
sg4
g17
sg6
g85
sg8
V{{birth date and age|1936|1|9}}
p132
sg10
VAmerican
p133
sg12
VNovelist
p134
sa(dp135
g2
VLinda Fairstein
p136
sg4
g17
sg6
V{{URL|http://www.lindafairstein.com}}
p137
sg8
V{{birth date and age|1947|5|5}}
p138
sg10
VAmerican
p139
sg12
VNovelist, former Assistant District Attorney of the County of New York
p140
sa(dp141
g2
VSister Souljah
p142
sg4
Vhttps://upload.wikimedia.org/wikipedia/en/4/4a/Commons-logo.svg
p143
sg6
V{{URL|sistersouljah.com}}
p144
sg8
V{{birth year and age|1964}}
p145
sg10
VAmerican
p146
sg12
VAuthor, activist, recording artist, film producer
p147
sa(dp148
g2
VJudy Blume
p149
sg4
Vhttps://upload.wikimedia.org/wikipedia/en/4/4a/Commons-logo.svg
p150
sg6
V{{URL|judyblume.com}}
p151
sg8
V{{birth date and age|1938|02|12}}
p152
sg10
VAmerican
p153
sg12
VWriter, teacher
p154
sa(dp155
g2
VDenise Kiernan
p156
sg4
Vhttps://upload.wikimedia.org/wikipedia/commons/4/46/Denise_kiernan_8479.JPG
p157
sg6
V{{URL|www.denisekiernan.com}}
p158
sg8
V{{Birth date and age|1968|7|31}}
p159
sg10
VAmerican
p160
sg12
g85
sa(dp161
g2
VAnna Quindlen
p162
sg4
Vhttps://upload.wikimedia.org/wikipedia/commons/6/6a/Anna_Quindlen.jpg
p163
sg6
g17
sg8
V{{Birth date and age|1953|7|8}}
p164
sg10
g17
sg12
VColumnist, novelist
p165
sa(dp166
g2
VJennifer Egan
p167
sg4
Vhttps://upload.wikimedia.org/wikipedia/commons/9/90/Jennifer_Egan_BBF_2010_Shankbone.jpg
p168
sg6
V{{URL|http://www.jenniferegan.com/}}
p169
sg8
V{{birth date and age|1962|9|7|mf=y}}
p170
sg10
g17
sg12
Vnovelist
p171
sa(dp172
g2
VChristian Rudder
p173
sg4
Vhttps://upload.wikimedia.org/wikipedia/en/c/c2/Crystal_Clear_app_Login_Manager_2.png
p174
sg6
g17
sg8
VSept. 1, 1975 
p175
sg10
VAmerican
p176
sg12
Ventrepreneur, writer, musician
p177
sa(dp178
g2
VJackie Collins
p179
sg4
Vhttps://upload.wikimedia.org/wikipedia/en/4/4a/Commons-logo.svg
p180
sg6
V{{URL|www.jackiecollins.com}}
p181
sg8
V{{birth date|1937|10|04|df=yes}}
p182
sg10
g17
sg12
VNovelist
p183
sa(dp184
g2
VEdward Rutherfurd
p185
sg4
Vhttps://upload.wikimedia.org/wikipedia/en/a/ae/Flag_of_the_United_Kingdom.svg
p186
sg6
V{{URL|http://www.edwardrutherfurd.com}}
p187
sg8
V1948
p188
sg10
VBritish
p189
sg12
VWriter
p190
sa(dp191
g2
VMary Oliver
p192
sg4
Vhttps://upload.wikimedia.org/wikipedia/commons/e/e2/Nuvola_apps_arts.svg
p193
sg6
g85
sg8
V{{birth date and age|1935|09|10}}
p194
sg10
VAmerican
p195
sg12
VPoet
p196
sa(dp197
g2
VMarco Rubio
p198
sg4
Vhttps://upload.wikimedia.org/wikipedia/en/6/69/P_vip.svg
p199
sg6
V{{url|rubio.senate.gov|Senate website}}, {{url|marcorubio.com|Campaign website}}
p200
sg8
V{{birth date and age|1971|5|28}}
p201
sg10
g17
sg12
g17
sa(dp202
g2
VJames O'Keefe
p203
sg4
Vhttps://upload.wikimedia.org/wikipedia/commons/e/e1/James_O%27Keefe_by_Gage_Skidmore.jpg
p204
sg6
V{{URL|www.projectveritas.com}}
p205
sg8
V{{Birth date and age|1984|06|28}}
p206
sg10
g17
sg12
VConservative movement filmmaker, lecturer, and activist
p207
sa(dp208
g2
VSteve Case
p209
sg4
Vhttps://upload.wikimedia.org/wikipedia/commons/3/3b/20060920-1_p092006sc-0254-1-515h.jpg
p210
sg6
V[http://casefoundation.org/ Official website]
p211
sg8
V{{birth date and age|1958|8|21}}
p212
sg10
g17
sg12
g17
sa(dp213
g2
VStephanie Laurens
p214
sg4
g17
sg6
V{{url|http://stephanielaurens.com/AboutStephanie.htm}}
p215
sg8
V19??
p216
sg10
VAustralian
p217
sg12
VNovelist
p218
sa(dp219
g2
VJessica Buchanan
p220
sg4
g17
sg6
g17
sg8
g17
sg10
g17
sg12
VJournalist
p221
sa(dp222
g2
VJon Krakauer
p223
sg4
Vhttps://upload.wikimedia.org/wikipedia/en/4/4a/Commons-logo.svg
p224
sg6
g85
sg8
V{{birth date and age|1954|4|12}}
p225
sg10
g17
sg12
VWriter, mountaineer
p226
sa(dp227
g2
VLarissa Ione
p228
sg4
g17
sg6
V{{URL|http://larissaione.com/blog/}}
p229
sg8
g85
sg10
VU.S.
p230
sg12
Vnovelist
p231
sa(dp232
g2
VDaniel Yergin
p233
sg4
Vhttps://upload.wikimedia.org/wikipedia/commons/1/11/Daniel_Yergin_-_World_Economic_Forum_Annual_Meeting_2012.jpg
p234
sg6
V{{URL|www.danielyergin.com}}
p235
sg8
V{{birth date and age|df=yes|1947|2|06}}
p236
sg10
g17
sg12
VAuthor
p237
sa(dp238
g2
VMatthew Quick
p239
sg4
Vhttps://upload.wikimedia.org/wikipedia/commons/4/40/MatthewQuick.jpg
p240
sg6
V{{URL|matthewquickwriter.com}}
p241
sg8
V{{birth date and age|1973|10|23}}
p242
sg10
VAmerican
p243
sg12
VWriter
p244
sa(dp245
g2
VJonathan Franzen
p246
sg4
Vhttps://upload.wikimedia.org/wikipedia/en/4/4a/Commons-logo.svg
p247
sg6
V{{URL|http://jonathanfranzen.com}}
p248
sg8
V{{birth date and age|1959|8|17|mf=y}}
p249
sg10
VAmerican
p250
sg12
VNovelist, essayist
p251
sa(dp252
g2
VNicholas Sparks
p253
sg4
Vhttps://upload.wikimedia.org/wikipedia/commons/a/af/Nicholas-Sparks-Autograph-1-4-06.jpg
p254
sg6
V{{URL|http://www.nicholassparks.com}}
p255
sg8
V{{birth date and age|mf=yes|1965|12|31}}
p256
sg10
g17
sg12
Vproducer
p257
sa(dp258
g2
VBaratunde Thurston
p259
sg4
Vhttps://upload.wikimedia.org/wikipedia/en/4/4a/Commons-logo.svg
p260
sg6
Vhttp://www.baratunde.com
p261
sg8
V{{birth date and age|1977|09|11}}
p262
sg10
g17
sg12
VComedian, author
p263
sa(dp264
g2
VChil Rajchman
p265
sg4
Vhttps://upload.wikimedia.org/wikipedia/commons/0/06/Chil_Rajchman_%281914-2004%29.jpg
p266
sg6
g17
sg8
VJune 14, 1914
p267
sg10
g17
sg12
g17
sa(dp268
g2
VKendall Ryan
p269
sg4
Vhttps://upload.wikimedia.org/wikipedia/en/c/c2/Crystal_Clear_app_Login_Manager_2.png
p270
sg6
g17
sg8
S'{{birth date and age|1992|8|10}}'
p271
sg10
g17
sg12
g17
sa(dp272
g2
VLisa Kleypas
p273
sg4
g17
sg6
V{{URL|http://www.lisakleypas.com}}
p274
sg8
V{{Birth year and age|1964}}
p275
sg10
VAmerican
p276
sg12
VNovelist
p277
sa(dp278
g2
VKevin Powers
p279
sg4
g17
sg6
g17
sg8
V{{Birth date and age|1980|7|11|mf=y}}
p280
sg10
VAmerican
p281
sg12
VNovelist, poet, soldier
p282
sa(dp283
g2
VAnn Romney
p284
sg4
Vhttps://upload.wikimedia.org/wikipedia/en/f/fb/Vernon_B._Romney%2C_Utah_Attorney_General%2C_1969-1977.jpg
p285
sg6
g17
sg8
V{{birth date and age|1949|4|16}}
p286
sg10
g17
sg12
V{{flatlist| * Equestrian }}
p287
sa(dp288
g2
VJohn Feinstein
p289
sg4
Vhttps://upload.wikimedia.org/wikipedia/commons/b/b4/Ambox_important.svg
p290
sg6
g17
sg8
V{{Birth date and age|1956|7|28|mf=y}}
p291
sg10
VAmerican
p292
sg12
g17
sa(dp293
g2
VElaine Pagels
p294
sg4
Vhttps://upload.wikimedia.org/wikipedia/commons/a/a7/MayaWithInfantBuddhaGandhara2ndCentury.jpg
p295
sg6
g17
sg8
V{{Birth date and age|1943|02|13|mf=yes}}
p296
sg10
g85
sg12
g17
sa(dp297
g2
VNancy Jo Sales
p298
sg4
g17
sg6
g17
sg8
V{{birth date and age|1964|10|15}}
p299
sg10
g17
sg12
VJournalist, author
p300
sa(dp301
g2
VBill Nye
p302
sg4
Vhttps://upload.wikimedia.org/wikipedia/en/4/4a/Commons-logo.svg
p303
sg6
g17
sg8
V{{birth date and age|1955|11|27}}
p304
sg10
VAmerican
p305
sg12
g17
sa(dp306
g2
VDeepak Chopra
p307
sg4
Vhttps://upload.wikimedia.org/wikipedia/en/4/4a/Commons-logo.svg
p308
sg6
V{{official website}}
p309
sg8
V{{Birth date and age|mf=yes|1947|10|22}}
p310
sg10
VAmerican
p311
sg12
VAlternative medicine advocate, public speaker, writer
p312
sa(dp313
g2
VElizabeth Kostova
p314
sg4
Vhttps://upload.wikimedia.org/wikipedia/commons/1/16/E.Kostova.jpg
p315
sg6
g85
sg8
V{{birth date and age|1964|12|26}}
p316
sg10
VAmerican
p317
sg12
VNovelist
p318
sa(dp319
g2
VPeter Ames Carlin
p320
sg4
g17
sg6
V{{URL|http://peteramescarlin.com/}}
p321
sg8
V{{birth date and age|1963|3|13}}
p322
sg10
VUnited States
p323
sg12
VJournalist, critic and author
p324
sa(dp325
g2
VDavid Limbaugh
p326
sg4
Vhttps://upload.wikimedia.org/wikipedia/en/6/69/P_vip.svg
p327
sg6
g17
sg8
V{{Birth date and age|1952|12|11}}
p328
sg10
g17
sg12
VAttorney, writer
p329
sa(dp330
g2
VJohn Lescroart
p331
sg4
g17
sg6
V{{URL|http://www.johnlescroart.com/}}
p332
sg8
V
p333
sg10
VAmerican
p334
sg12
VNovelist
p335
sa(dp336
g2
VCarole King
p337
sg4
Vhttps://upload.wikimedia.org/wikipedia/en/4/4a/Commons-logo.svg
p338
sg6
V{{URL|www.caroleking.com|CaroleKing.com}}
p339
sg8
V{{birth date and age|1942|2|9}}
p340
sg10
g17
sg12
VSinger-songwriter
p341
sa(dp342
g2
VAdam Carolla
p343
sg4
Vhttps://upload.wikimedia.org/wikipedia/commons/f/fa/Wikiquote-logo.svg
p344
sg6
V{{URL| http://www.adamcarolla.com | AdamCarolla.com}}
p345
sg8
V{{birth date and age|1964|5|27}}
p346
sg10
g17
sg12
VRadio personality, Television presenter, Comedian, Actor
p347
sa(dp348
g2
VNaomi Klein
p349
sg4
Vhttps://upload.wikimedia.org/wikipedia/en/4/4a/Commons-logo.svg
p350
sg6
V{{URL|naomiklein.org}}
p351
sg8
V{{Birth date and age|mf=yes|1970|5|8}}
p352
sg10
VCanadian
p353
sg12
VAuthor, activist
p354
sa(dp355
g2
VTami Hoag
p356
sg4
g17
sg6
S'{{URL|http://www.tamihoag.com}}'
p357
sg8
S'{{birth date and age|1959|01|20}}'
p358
sg10
S'United States'
p359
sg12
S'novelist'
p360
sa(dp361
g2
VKurt Eichenwald
p362
sg4
Vhttps://upload.wikimedia.org/wikipedia/commons/1/1d/Kurt_eichenwald_2009.jpg
p363
sg6
Vhttp://kurteichenwald.com/
p364
sg8
V{{Birth date and age|1961|6|28}}
p365
sg10
g85
sg12
g85
sa(dp366
g2
VSue Monk Kidd
p367
sg4
Vhttps://upload.wikimedia.org/wikipedia/commons/f/fa/Wikiquote-logo.svg
p368
sg6
V{{URL|http://www.suemonkkidd.com}}
p369
sg8
V{{Birth date and age|1948|8|12|mf=y}}
p370
sg10
VUnited States
p371
sg12
VNovelist, memoirist, feminist
p372
sa(dp373
g2
VRalph Peters
p374
sg4
Vhttps://upload.wikimedia.org/wikipedia/en/6/62/PD-icon.svg
p375
sg6
g17
sg8
V{{Birth date and age|1952|04|19}}
p376
sg10
VAmerican
p377
sg12
VFormer U.S. Army officer, military analyst, writer
p378
sa(dp379
g2
VMark Helprin
p380
sg4
Vhttps://upload.wikimedia.org/wikipedia/commons/0/0b/Mark_helprin_8645.JPG
p381
sg6
V{{URL|http://markhelprin.com}}
p382
sg8
V{{Birth date and age|1947|6|28}}
p383
sg10
g17
sg12
VAuthor, journalist, news commentator
p384
sa(dp385
g2
VCharlaine Harris
p386
sg4
Vhttps://upload.wikimedia.org/wikipedia/en/4/4a/Commons-logo.svg
p387
sg6
V{{URL|http://www.charlaineharris.com}}
p388
sg8
V{{birth date and age|1951|11|25}}
p389
sg10
VAMERICAN
p390
sg12
VNovelist
p391
sa(dp392
g2
VAmy Robach
p393
sg4
Vhttps://upload.wikimedia.org/wikipedia/commons/b/b4/Ambox_important.svg
p394
sg6
g17
sg8
V{{birth date and age|1973|2|6}}
p395
sg10
g17
sg12
VAnchor; correspondent
p396
sa(dp397
g2
VKim Harrison
p398
sg4
Vhttps://upload.wikimedia.org/wikipedia/commons/a/a3/Kim_Harrison_at_Nicola%27s_Books_Ann_Arbor_Michigan.JPG
p399
sg6
V{{URL|http://www.kimharrison.net}}
p400
sg8
V1966
p401
sg10
VUnited States
p402
sg12
Vnovelist
p403
sa(dp404
g2
VJoe Hill
p405
sg4
Vhttps://upload.wikimedia.org/wikipedia/en/4/4a/Commons-logo.svg
p406
sg6
g85
sg8
V{{birth date|1879|10|7|mf=y}}
p407
sg10
g85
sg12
Vlabor activist, songwriter, and member of the Industrial Workers of the World
p408
sa(dp409
g2
VKati Marton
p410
sg4
Vhttps://upload.wikimedia.org/wikipedia/commons/4/48/Kati_Marton_Photo_2016.jpeg
p411
sg6
g17
sg8
V{{Birth date and age|1949|4|3}}
p412
sg10
g17
sg12
VJournalist, human rights activist
p413
sa(dp414
g2
VLisa Scottoline
p415
sg4
Vhttps://upload.wikimedia.org/wikipedia/en/4/4a/Commons-logo.svg
p416
sg6
g17
sg8
S'{{birth date and age|1955|7|1|mf=y}}'
p417
sg10
S'American'
p418
sg12
S'Lawyer, author'
p419
sa(dp420
g2
VMartin Cruz Smith
p421
sg4
Vhttps://upload.wikimedia.org/wikipedia/en/6/69/P_vip.svg
p422
sg6
V{{URL|http://www.martincruzsmith.com}}
p423
sg8
V{{birth date and age|1942|11|3}}
p424
sg10
g85
sg12
V{{\u2022}}Novelist, {{\u2022}}Screenwriter
p425
sa(dp426
g2
VRee Drummond
p427
sg4
Vhttps://upload.wikimedia.org/wikipedia/en/9/99/Question_book-new.svg
p428
sg6
V{{URL|http://www.thepioneerwoman.com}}
p429
sg8
V{{Birth date and age|1969|01|06}}
p430
sg10
VAmerican
p431
sg12
Vfood writer, television personality
p432
sa(dp433
g2
VDavid Lagercrantz
p434
sg4
Vhttps://upload.wikimedia.org/wikipedia/en/4/4a/Commons-logo.svg
p435
sg6
g17
sg8
V{{birth date and age|1962|09|04}}
p436
sg10
g17
sg12
VJournalist, novelist
p437
sa(dp438
g2
VRon Rash
p439
sg4
g17
sg6
g85
sg8
V{{Birth date and age|1953|09|25}}
p440
sg10
VAmerican
p441
sg12
VNovelist
p442
sa(dp443
g2
VLauren Willig
p444
sg4
Vhttps://upload.wikimedia.org/wikipedia/en/1/1c/Lauren_Willig_Signing_Picture.jpg
p445
sg6
V{{URL|http://www.laurenwillig.com/}}
p446
sg8
V{{birth date and age|1977|03|28}}
p447
sg10
VAmerican
p448
sg12
VWriter
p449
sa(dp450
g2
VDan Brown
p451
sg4
Vhttps://upload.wikimedia.org/wikipedia/commons/3/30/Dan_Brown_November_2015.jpg
p452
sg6
V{{URL|http://www.danbrown.com}}
p453
sg8
V{{Birth date and age|1964|06|22}}
p454
sg10
VAmerican
p455
sg12
VNovelist
p456
sa(dp457
g2
VIan McEwan
p458
sg4
Vhttps://upload.wikimedia.org/wikipedia/commons/f/f4/Ianmcewan.jpg
p459
sg6
V{{URL|http://www.ianmcewan.com}}
p460
sg8
V{{Birth date and age|1948|6|21|df=y}}
p461
sg10
VBritish
p462
sg12
VNovelist, screenwriter
p463
sa(dp464
g2
VRon Suskind
p465
sg4
Vhttps://upload.wikimedia.org/wikipedia/commons/a/aa/Ron_Suskind%2C_Senior_Fellow%2C_Edmund_Safra_Center_for_Ethics%2C_Harvard_University_%288115632267%29.jpg
p466
sg6
g17
sg8
VNovember 20, 1959 (age 56)
p467
sg10
g17
sg12
VJournalist, Author
p468
sa(dp469
g2
VJeffery Deaver
p470
sg4
Vhttps://upload.wikimedia.org/wikipedia/en/4/4a/Commons-logo.svg
p471
sg6
V{{URL|http://www.jefferydeaver.com/}}
p472
sg8
V{{Birth date and age|1950|5|6}}
p473
sg10
g17
sg12
VWriter
p474
sa(dp475
g2
VSarah Vowell
p476
sg4
Vhttps://upload.wikimedia.org/wikipedia/en/4/4a/Commons-logo.svg
p477
sg6
g17
sg8
V{{Birth-date and age|December 27, 1969}}
p478
sg10
g17
sg12
VAuthor, journalist, essayist, social commentator, actress
p479
sa(dp480
g2
VCatherine Bybee
p481
sg4
Vhttps://upload.wikimedia.org/wikipedia/en/6/6c/Wiki_letter_w.svg
p482
sg6
V{{URL|http://www.catherinebybee.com/}}
p483
sg8
g85
sg10
VAmerican
p484
sg12
VNovelist
p485
sa(dp486
g2
VPaul Tough
p487
sg4
Vhttps://upload.wikimedia.org/wikipedia/en/6/69/P_vip.svg
p488
sg6
g85
sg8
g85
sg10
g17
sg12
VAuthor, broadcaster, journalist
p489
sa(dp490
g2
VStuart Woods
p491
sg4
Vhttps://upload.wikimedia.org/wikipedia/commons/3/35/Stuart_Woods_by_Mark_Coggins.jpg
p492
sg6
V{{URL|http://www.stuartwoods.com/}}
p493
sg8
V{{Birth date and age|1938|01|09}}
p494
sg10
g17
sg12
VNovelist
p495
sa(dp496
g2
VClaire Messud
p497
sg4
Vhttps://upload.wikimedia.org/wikipedia/en/4/4a/Commons-logo.svg
p498
sg6
g85
sg8
V1966
p499
sg10
VAmerican
p500
sg12
VNovelist, teacher
p501
sa(dp502
g2
VCurtis Sittenfeld
p503
sg4
g17
sg6
g17
sg8
S'{{birth date and age|1975|8|23}}'
p504
sg10
g17
sg12
S'Novelist'
p505
sa(dp506
g2
VAlison Weir
p507
sg4
Vhttps://upload.wikimedia.org/wikipedia/commons/f/fc/Padlock-silver.svg
p508
sg6
V{{URL|http://alisonweir.org.uk}}
p509
sg8
V{{birth date and age|1951|7|8|df=y}}
p510
sg10
VBritish
p511
sg12
VAuthor, historian
p512
sa(dp513
g2
VLinda Howard
p514
sg4
Vhttps://upload.wikimedia.org/wikipedia/commons/b/b4/Ambox_important.svg
p515
sg6
S'{{URL|http://www.randomhouse.com/features/lhoward/}}'
p516
sg8
S'{{Birth date and age|1950|8|3|mf=y}}'
p517
sg10
S'American'
p518
sg12
S'Novelist'
p519
sa(dp520
g2
VLouise Penny
p521
sg4
Vhttps://upload.wikimedia.org/wikipedia/en/4/4a/Commons-logo.svg
p522
sg6
V{{URL|http://www.louisepenny.com}}
p523
sg8
V{{Birth date and age|1958|7|1|mf=yes}}
p524
sg10
VCanadian
p525
sg12
VNovelist
p526
sa(dp527
g2
VChang-Rae Lee
p528
sg4
Vhttps://upload.wikimedia.org/wikipedia/en/6/69/P_vip.svg
p529
sg6
g85
sg8
VJuly 29, 1965
p530
sg10
VUnited States (naturalized)
p531
sg12
Vnovelist
p532
sa(dp533
g2
VMarina Keegan
p534
sg4
g17
sg6
g85
sg8
V{{Birth date|1989|10|25}}
p535
sg10
VAmerican
p536
sg12
VWriter
p537
sa(dp538
g2
VMelissa Rivers
p539
sg4
g17
sg6
V{{URL|melissarivers.com}}
p540
sg8
V{{Birth date and age|1968|01|20}}
p541
sg10
g17
sg12
VTelevision host, producer, actress, equestrienne, philanthropist
p542
sa(dp543
g2
VClaudia Gray
p544
sg4
Vhttps://upload.wikimedia.org/wikipedia/commons/b/b4/Ambox_important.svg
p545
sg6
g85
sg8
V{{birth date and age|1970|6|12}}
p546
sg10
VAmerican
p547
sg12
VWriter
p548
sa(dp549
g2
VMario Livio
p550
sg4
Vhttps://upload.wikimedia.org/wikipedia/en/3/33/Golden_Ratio_cover.PNG
p551
sg6
g17
sg8
V{{birth year and age|1945}}
p552
sg10
VIsraeli-American
p553
sg12
g17
sa(dp554
g2
VRainbow Rowell
p555
sg4
Vhttps://upload.wikimedia.org/wikipedia/commons/1/1d/Tom_Sawyer_1876_frontispiece.jpg
p556
sg6
V{{URL|http://rainbowrowell.com}}
p557
sg8
V{{Birth date and age|1973|2|24}} <ref name="USA Today 2011">{{cite web|url=http://usatoday30.usatoday.com/life/books/news/2011-04-21-buzzplus21_ST_N.htm|title=Rainbow Rowell loves local color|work=USATODAY.COM|accessdate=28 March 2016}}</ref>
p558
sg10
VAmerican
p559
sg12
VWriter
p560
sa(dp561
g2
VMaria Semple
p562
sg4
Vhttps://upload.wikimedia.org/wikipedia/commons/f/f3/Maria_Semple_at_2013_L.A._Times_Festival_of_Books.jpg
p563
sg6
g17
sg8
V{{birth date and age|1964|5|21}}
p564
sg10
g17
sg12
VTelevision producer, television writer and novelist
p565
sa(dp566
g2
VCarlo Rovelli
p567
sg4
Vhttps://upload.wikimedia.org/wikipedia/commons/f/fa/Wikiquote-logo.svg
p568
sg6
g17
sg8
V{{birth date and age|df=yes|1956|05|03}}
p569
sg10
VUSA and Italy
p570
sg12
g17
sa(dp571
g2
VSylvia Nasar
p572
sg4
Vhttps://upload.wikimedia.org/wikipedia/en/4/4a/Commons-logo.svg
p573
sg6
g17
sg8
V{{Birth date and age|1947|8|17|df=y}}
p574
sg10
g17
sg12
VJournalist , Biographer,  Professor of Journalism
p575
sa(dp576
g2
VJeffrey Toobin
p577
sg4
Vhttps://upload.wikimedia.org/wikipedia/en/4/4a/Commons-logo.svg
p578
sg6
g17
sg8
V{{Birth date and age|mf=yes|1960|05|21}}
p579
sg10
g17
sg12
VLegal analyst, Commentator
p580
sa(dp581
g2
VStacy Schiff
p582
sg4
Vhttps://upload.wikimedia.org/wikipedia/commons/7/7a/Stacy_schiff_2011.jpg
p583
sg6
g85
sg8
V{{birth date and age|1961|10|26}}
p584
sg10
VAmerican
p585
sg12
VWriter and editor
p586
sa(dp587
g2
VJohn Grisham
p588
sg4
Vhttps://upload.wikimedia.org/wikipedia/en/4/4a/Commons-logo.svg
p589
sg6
V{{URL|http://www.jgrisham.com}}
p590
sg8
V{{Birth date and age|1955|2|8}}
p591
sg10
VUnited States
p592
sg12
VWriter
p593
sa(dp594
g2
VJessie Burton
p595
sg4
Vhttps://upload.wikimedia.org/wikipedia/commons/a/a2/Shakespeare.jpg
p596
sg6
g17
sg8
S'1982 <ref name="picador2015" />'
p597
sg10
g17
sg12
S'Author, Actress'
p598
sa(dp599
g2
VKate Mulgrew
p600
sg4
Vhttps://upload.wikimedia.org/wikipedia/en/4/4a/Commons-logo.svg
p601
sg6
g17
sg8
V{{Birth date and age|1955|4|29}}
p602
sg10
g17
sg12
VActress
p603
sa(dp604
g2
VYuval Noah Harari
p605
sg4
Vhttps://upload.wikimedia.org/wikipedia/commons/b/b0/Yuval_Noah_Harari_photo.jpg
p606
sg6
V{{URL|http://www.ynharari.com}}
p607
sg8
V{{Birth date and age|1976|02|24}}
p608
sg10
VIsraeli
p609
sg12
g17
sa(dp610
g2
VDonald Rumsfeld
p611
sg4
Vhttps://upload.wikimedia.org/wikipedia/en/a/a4/Flag_of_the_United_States.svg
p612
sg6
V{{url|rumsfeld.com|Library website}}<ref name="website"/>
p613
sg8
V{{birth date and age|1932|7|9}}
p614
sg10
g17
sg12
g17
sa(dp615
g2
VMichael Punke
p616
sg4
Vhttps://upload.wikimedia.org/wikipedia/commons/b/b8/Ambassador_Michael_Punke_-_Jan_13%2C_2011_Press_Briefing_%282%29.jpg
p617
sg6
g17
sg8
V{{Birth date and age|1964|12|07}}
p618
sg10
g17
sg12
VWriter, novelist, lawyer, Deputy U.S. Trade Representative and U.S. Ambassador and Representative to the WTO in Geneva, Switzerland
p619
sa(dp620
g2
VNathaniel Philbrick
p621
sg4
Vhttps://upload.wikimedia.org/wikipedia/commons/1/18/Nathaniel_Philbrick.JPG
p622
sg6
g85
sg8
V{{birth date and age|1956|6|11|mf=y}}
p623
sg10
VAmerican
p624
sg12
VNovelist, historian
p625
sa(dp626
g2
VJeff Stibel
p627
sg4
g17
sg6
Vhttps://web.archive.org/web/20150402153316/http://www.stibel.com/
p628
sg8
V{{Birth based on age as of date|33|2006|12|18}} <ref name="bweek 2006/12/18" />
p629
sg10
g17
sg12
VEntrepreneur
p630
sa(dp631
g2
VPaula Hawkins
p632
sg4
Vhttps://upload.wikimedia.org/wikipedia/commons/f/f0/Seal_of_the_United_States_Senate.svg
p633
sg6
g17
sg8
V{{birth date|1927|1|24}}
p634
sg10
g17
sg12
g17
sa(dp635
g2
VKaren Abbott
p636
sg4
g17
sg6
g17
sg8
V{{Birth date and age|1973|01|23}}
p637
sg10
g17
sg12
VAuthor
p638
sa(dp639
g2
VHowie Carr
p640
sg4
Vhttps://upload.wikimedia.org/wikipedia/commons/0/08/Holt_Hall%2C_Portland%2C_Maine.jpg
p641
sg6
g17
sg8
V{{birth date and age|mf=yes|1952|01|17}}
p642
sg10
g17
sg12
g17
sa(dp643
g2
VPadma Lakshmi
p644
sg4
Vhttps://upload.wikimedia.org/wikipedia/en/4/4a/Commons-logo.svg
p645
sg6
g17
sg8
V{{Birth date and age|1970|9|1|mf=y}}
p646
sg10
g17
sg12
VModel, author, actress, TV host
p647
sa(dp648
g2
VHope Jahren
p649
sg4
g17
sg6
g17
sg8
V{{birth date|mf=yes|1969|09|27}}
p650
sg10
VUnited States
p651
sg12
g17
sa(dp652
g2
VJonathan Alter
p653
sg4
Vhttps://upload.wikimedia.org/wikipedia/en/4/4a/Commons-logo.svg
p654
sg6
V{{URL|http://www.jonathanalter.com/}}
p655
sg8
V{{Birth date and age|1957|10|06}}
p656
sg10
VAmerican
p657
sg12
VJournalist, executive producer, author, radio host, television producer
p658
sa(dp659
g2
VGeorge Pelecanos
p660
sg4
Vhttps://upload.wikimedia.org/wikipedia/en/4/4a/Commons-logo.svg
p661
sg6
V{{URL|http://www.hachettebookgroup.com/features/georgepelecanos/}}
p662
sg8
V{{birth date and age|1957|2|18|}}
p663
sg10
VAmerican
p664
sg12
VTelevision Writer
p665
sa(dp666
g2
VSara Gruen
p667
sg4
g17
sg6
V{{URL|http://saragruen.com}}
p668
sg8
g85
sg10
VCanadian
p669
sg12
VNovelist
p670
sa(dp671
g2
VLisa Genova
p672
sg4
g17
sg6
V{{URL|http://www.lisagenova.com}}
p673
sg8
V{{birth date and age|1970|11|22}}
p674
sg10
VAmerican
p675
sg12
VNovelist and neuroscientist
p676
sa(dp677
g2
VMatt Kibbe
p678
sg4
Vhttps://upload.wikimedia.org/wikipedia/commons/7/7c/Matt_Kibbe_on_Kennedy.jpg
p679
sg6
g17
sg8
g17
sg10
g17
sg12
VPresident and Chief Community Organizer, Free the People
p680
sa(dp681
g2
VLauren Groff
p682
sg4
Vhttps://upload.wikimedia.org/wikipedia/commons/3/38/Lauren_groff_bw.jpg
p683
sg6
V{{URL|http://www.laurengroff.com/}}
p684
sg8
V1978
p685
sg10
V{{USA}}
p686
sg12
Vnovelist
p687
sa(dp688
g2
VSally Mann
p689
sg4
Vhttps://upload.wikimedia.org/wikipedia/en/4/41/%22Jessie%27s_Cut%22_by_Sally_Mann_%281985%29.jpg
p690
sg6
g17
sg8
V{{birth date and age|1951|5|1}}
p691
sg10
VAmerican
p692
sg12
g17
sa(dp693
g2
VPaulo Coelho
p694
sg4
Vhttps://upload.wikimedia.org/wikipedia/en/4/4a/Commons-logo.svg
p695
sg6
g17
sg8
V{{Birth date and age|1947|8|24|mf=y}}
p696
sg10
VBrazilian
p697
sg12
VNovelist
p698
sa(dp699
g2
VChris Cleave
p700
sg4
Vhttps://upload.wikimedia.org/wikipedia/commons/5/56/Chris_Cleave.jpg
p701
sg6
g17
sg8
S'{{birth year and age|1973}}'
p702
sg10
g17
sg12
S'Writer'
p703
sa(dp704
g2
VStephen King
p705
sg4
Vhttps://upload.wikimedia.org/wikipedia/en/4/4a/Commons-logo.svg
p706
sg6
V{{URL|http://stephenking.com}}
p707
sg8
V{{birth date and age|1947|9|21}}
p708
sg10
g17
sg12
V{{flatlist| *Novelist *short story writer *screenwriter *columnist *actor *television producer *singer *musician }}
p709
sa(dp710
g2
VKirstie Alley
p711
sg4
Vhttps://upload.wikimedia.org/wikipedia/en/4/4a/Commons-logo.svg
p712
sg6
V{{URL|kirstiealley.com}}
p713
sg8
V{{Birth date and age|mf=yes|1951|1|12}}
p714
sg10
VAmerican
p715
sg12
VActress, comedian, spokesmodel
p716
sa(dp717
g2
VEloisa James
p718
sg4
Vhttps://upload.wikimedia.org/wikipedia/commons/f/fe/Unbalanced_scales.svg
p719
sg6
V{{URL|http://www.eloisajames.com/}}
p720
sg8
V{{birth year and age|1962}}
p721
sg10
VUnited States
p722
sg12
VProfessor, novelist
p723
sa(dp724
g2
VSarah Dunant
p725
sg4
Vhttps://upload.wikimedia.org/wikipedia/commons/b/b4/Ambox_important.svg
p726
sg6
g85
sg8
V{{birth date and age|1950|8|8|df=y}}<ref name="New York Times"/><ref name="The Independent" />
p727
sg10
g17
sg12
VWriter, broadcaster, critic
p728
sa(dp729
g2
VReed Farrel Coleman
p730
sg4
Vhttps://upload.wikimedia.org/wikipedia/commons/7/75/Reed_Farrell_Coleman.jpg
p731
sg6
V{{URL|reedcoleman.com}}
p732
sg8
V{{Birth date and age|1956|03|29}}
p733
sg10
g85
sg12
VPoet, crime fiction writer
p734
sa(dp735
g2
VAllison Brennan
p736
sg4
g17
sg6
V{{URL|http://www.allisonbrennan.com}}
p737
sg8
VSeptember 29, 1969 
p738
sg10
VUnited States
p739
sg12
VNovelist
p740
sa(dp741
g2
VLauren Graham
p742
sg4
Vhttps://upload.wikimedia.org/wikipedia/en/4/4a/Commons-logo.svg
p743
sg6
g17
sg8
V{{birth date and age|1967|3|16}}
p744
sg10
g17
sg12
VActress, producer, novelist
p745
sa(dp746
g2
VRebecca Traister
p747
sg4
Vhttps://upload.wikimedia.org/wikipedia/commons/5/52/Rebecca_Traister.jpg
p748
sg6
g85
sg8
V
p749
sg10
VAmerican
p750
sg12
g85
sa(dp751
g2
VLawrence Wright
p752
sg4
Vhttps://upload.wikimedia.org/wikipedia/en/4/4a/Commons-logo.svg
p753
sg6
V{{URL|http://www.lawrencewright.com/}}
p754
sg8
V{{Birth date and age|1947|08|02}}
p755
sg10
g85
sg12
VJournalist, screenwriter
p756
sa(dp757
g2
VJames Ellroy
p758
sg4
Vhttps://upload.wikimedia.org/wikipedia/commons/2/28/Bookbits_-_2009-11-02_James_Ellroy-Blood%27s_A_Rover.vorb.oga
p759
sg6
V[http://jamesellroy.net/ jamesellroy.net]
p760
sg8
V{{birth date and age|1948|3|4}}
p761
sg10
VAmerican
p762
sg12
VCrime writer, essayist
p763
sa(dp764
g2
VBarbara Freethy
p765
sg4
Vhttps://upload.wikimedia.org/wikipedia/commons/f/fa/Big_Book_blue.svg
p766
sg6
V{{URL|http://www.barbarafreethy.com/}}
p767
sg8
g85
sg10
VAmerica
p768
sg12
VNovelist
p769
sa(dp770
g2
VChiquis Rivera
p771
sg4
Vhttps://upload.wikimedia.org/wikipedia/commons/d/d2/Janney_%22Chiquis%22_Marin%2C_Alma_Awards_2012_Red_Carpet_Arrivals.jpg
p772
sg6
V{{URL|chiquisonline.com}}
p773
sg8
V{{birth date and age|1985|6|26}}
p774
sg10
g17
sg12
V{{flatlist| * Singer * actress * television personality * author * entrepreneur }}
p775
sa(dp776
g2
VAaron Allston
p777
sg4
Vhttps://upload.wikimedia.org/wikipedia/en/4/4a/Commons-logo.svg
p778
sg6
g17
sg8
V{{birth date|1960|12|8}}
p779
sg10
VUnited States
p780
sg12
VWriter, game designer
p781
sa(dp782
g2
VJojo Moyes
p783
sg4
g17
sg6
V{{URL|http://www.jojomoyes.com}}
p784
sg8
V{{Birth date and age|df=yes|1969|8|4}}
p785
sg10
VEnglish
p786
sg12
VJournalist, novelist
p787
sa(dp788
g2
VAndi Dorfman
p789
sg4
g17
sg6
g17
sg8
g17
sg10
g17
sg12
S'Attorney'
p790
sa(dp791
g2
VSebastian Faulks
p792
sg4
Vhttps://upload.wikimedia.org/wikipedia/en/4/4a/Commons-logo.svg
p793
sg6
g17
sg8
V{{Birth date and age|df=yes|1953|04|20|dm=y}}
p794
sg10
VBritish
p795
sg12
VJournalist and novelist
p796
sa(dp797
g2
VIsabel Allende
p798
sg4
Vhttps://upload.wikimedia.org/wikipedia/en/4/4a/Commons-logo.svg
p799
sg6
V{{URL|http://www.isabelallende.com}}
p800
sg8
V{{Birth date and age|df=yes|1942|8|2}}
p801
sg10
VChilean
p802
sg12
V{{flatlist |Author |journalist}}
p803
sa(dp804
g2
VElizabeth George
p805
sg4
g17
sg6
V{{URL|elizabethgeorgeonline.com}}
p806
sg8
V{{Birth date and age|1949|02|26}}
p807
sg10
VAmerican
p808
sg12
VWriter
p809
sa(dp810
g2
VDemetri Martin
p811
sg4
Vhttps://upload.wikimedia.org/wikipedia/en/4/48/Folder_Hexagonal_Icon.svg
p812
sg6
V{{URL|http://www.demetrimartin.com/}}
p813
sg8
V{{birth date and age|1973|5|25}}
p814
sg10
g17
sg12
g17
sa(dp815
g2
VElizabeth Strout
p816
sg4
Vhttps://upload.wikimedia.org/wikipedia/en/4/4a/Commons-logo.svg
p817
sg6
V{{URL|http://www.elizabethstrout.com/}}
p818
sg8
V{{Birth date and age|1956|1|6|df=yes}}
p819
sg10
VAmerican
p820
sg12
VNovelist, Academic
p821
sa(dp822
g2
VSarah MacLean
p823
sg4
Vhttps://upload.wikimedia.org/wikipedia/en/2/2a/Sarah_MacLean.jpg
p824
sg6
V{{URL|http://www.sarahmaclean.net/}}
p825
sg8
V{{Birth date and age|1978|12|17}}
p826
sg10
VAmerican
p827
sg12
VWriter
p828
sa(dp829
g2
VGail Carriger
p830
sg4
Vhttps://upload.wikimedia.org/wikipedia/en/4/4a/Commons-logo.svg
p831
sg6
V{{URL|gailcarriger.com}}
p832
sg8
V{{Birth date and age|1976|5|4}}
p833
sg10
VAmerican
p834
sg12
VWriter
p835
sa(dp836
g2
VDean Koontz
p837
sg4
Vhttps://upload.wikimedia.org/wikipedia/commons/f/fa/Wikiquote-logo.svg
p838
sg6
V{{URL|http://deankoontz.com}}
p839
sg8
V{{birth date and age|1945|7|9}}
p840
sg10
g17
sg12
Vnovelist, short story writer, screenwriter, poet
p841
sa(dp842
g2
VIsaac Marion
p843
sg4
g17
sg6
V{{URL|isaacmarion.com/}}
p844
sg8
V1981
p845
sg10
g85
sg12
VNovelist, musician
p846
sa(dp847
g2
VMatt Taibbi
p848
sg4
Vhttps://upload.wikimedia.org/wikipedia/commons/f/fa/Matt_Taibbi.jpg
p849
sg6
g17
sg8
V{{Birth date and age|1970|3|2|mf=yes}}
p850
sg10
VAmerican
p851
sg12
VJournalist, political writer, columnist
p852
sa(dp853
g2
VZbigniew Brzezinski
p854
sg4
Vhttps://upload.wikimedia.org/wikipedia/commons/1/1c/Wiki_letter_w_cropped.svg
p855
sg6
g17
sg8
V{{birth date and age|1928|3|28}}
p856
sg10
g17
sg12
g17
sa(dp857
g2
VAnne Rice
p858
sg4
Vhttps://upload.wikimedia.org/wikipedia/en/9/94/Symbol_support_vote.svg
p859
sg6
V{{URL|annerice.com}}
p860
sg8
V{{birth date and age|1941|10|4}}
p861
sg10
VAmerican
p862
sg12
VNovelist
p863
sa(dp864
g2
VDerek Hough
p865
sg4
Vhttps://upload.wikimedia.org/wikipedia/en/4/4a/Commons-logo.svg
p866
sg6
g17
sg8
V{{birth date and age |1985|5|17}}
p867
sg10
VAmerican
p868
sg12
VDancer  choreographer  actor  singer-songwriter  musician
p869
sa(dp870
g2
VNadia Bolz-Weber
p871
sg4
Vhttps://upload.wikimedia.org/wikipedia/commons/4/46/Flag_of_Colorado.svg
p872
sg6
V{{URL|http://www.nadiabolzweber.com}}
p873
sg8
V{{Birth year and age|1969}}
p874
sg10
VAmerican
p875
sg12
VPastor
p876
sa(dp877
g2
VHenning Mankell
p878
sg4
Vhttps://upload.wikimedia.org/wikipedia/en/4/4a/Commons-logo.svg
p879
sg6
V{{URL|http://www.henningmankell.com/}}
p880
sg8
V{{birth date|1948|2|3|df=y}}
p881
sg10
g17
sg12
VNovelist, playwright, publisher
p882
sa(dp883
g2
VTed Koppel
p884
sg4
Vhttps://upload.wikimedia.org/wikipedia/en/4/4a/Commons-logo.svg
p885
sg6
g17
sg8
V{{birth date and age|1940|02|08|df=yes}}
p886
sg10
g17
sg12
VJournalist, News anchor
p887
sa(dp888
g2
VNina George
p889
sg4
Vhttps://upload.wikimedia.org/wikipedia/en/6/6c/Wiki_letter_w.svg
p890
sg6
g17
sg8
V{{birth date|1973|8|30|df=y}}
p891
sg10
g17
sg12
VNovelist, Journalist
p892
sa(dp893
g2
VGlennon Doyle Melton
p894
sg4
Vhttps://upload.wikimedia.org/wikipedia/en/6/6c/Wiki_letter_w.svg
p895
sg6
S'{{URL|www.momastery.com}}'
p896
sg8
S'{{Birth date and age|1976|03|20|mf=y}}'
p897
sg10
S'American'
p898
sg12
S'{{plainlist| *Author *Public Speaker *Activist }}'
p899
sa(dp900
g2
VChuck Wendig
p901
sg4
g17
sg6
V{{URL|http://terribleminds.com/}}
p902
sg8
V
p903
sg10
VUnited States
p904
sg12
VAuthor, screenwriter, blogger
p905
sa(dp906
g2
VBrandon Sanderson
p907
sg4
Vhttps://upload.wikimedia.org/wikipedia/commons/7/70/Brandon_Sanderson_sign.jpg
p908
sg6
V{{URL|brandonsanderson.com}}
p909
sg8
V{{Birth date and age|1975|12|19|mf=yes}}
p910
sg10
VAmerican
p911
sg12
VWriter, creative writing instructor
p912
sa(dp913
g2
VJean Sasson
p914
sg4
g17
sg6
V{{URL|http://www.jeansasson.com/}}
p915
sg8
g17
sg10
VAmerican
p916
sg12
VAuthor
p917
sa(dp918
g2
VDavid Rakoff
p919
sg4
Vhttps://upload.wikimedia.org/wikipedia/en/4/4a/Commons-logo.svg
p920
sg6
g17
sg8
V{{birth date|1964|11|27}}
p921
sg10
VCanadian-American
p922
sg12
VEssayist, journalist, actor
p923
sa(dp924
g2
VBrandon Stanton
p925
sg4
Vhttps://upload.wikimedia.org/wikipedia/commons/8/8f/From_Brownsville%2C_Brooklyn_to_the_Oval_Office-_Vidal_Meets_the_President.webm
p926
sg6
V{{URL|http://www.humansofnewyork.com}}
p927
sg8
V{{Birth date and age|1984|03|01}}<ref name=cnn13>{{cite news| title = The photographer behind 'Humans of New York'| url = http://edition.cnn.com/2013/10/18/living/books-humans-of-new-york/|accessdate = 2013-10-25|date= October 18, 2013| publisher = CNN}}</ref>
p928
sg10
VAmerican
p929
sg12
VBlogger
p930
sa(dp931
g2
VAmity Shlaes
p932
sg4
Vhttps://upload.wikimedia.org/wikipedia/en/4/4a/Commons-logo.svg
p933
sg6
V{{URL|http://www.amityshlaes.com}}
p934
sg8
V{{Birth date and age|1960|09|10}}
p935
sg10
g85
sg12
g85
sa(dp936
g2
VAnne Tyler
p937
sg4
g17
sg6
g17
sg8
V{{birth date and age|1941|10|25| mf=y}}
p938
sg10
g17
sg12
Vnovelist, short story writer, literary critic
p939
sa(dp940
g2
VGreg Gutfeld
p941
sg4
Vhttps://upload.wikimedia.org/wikipedia/commons/a/ad/Greg-Gutfeld-3140.jpg
p942
sg6
g17
sg8
V{{birth date and age|1964|09|12|mf=yes}}
p943
sg10
VAmerican
p944
sg12
VTelevision personality
p945
sa(dp946
g2
VUmberto Eco
p947
sg4
Vhttps://upload.wikimedia.org/wikipedia/en/4/4a/Commons-logo.svg
p948
sg6
g17
sg8
V{{Birth date|df=yes|1932|1|5}}
p949
sg10
g17
sg12
g17
sa(dp950
g2
VRob Lowe
p951
sg4
Vhttps://upload.wikimedia.org/wikipedia/en/4/4a/Commons-logo.svg
p952
sg6
g17
sg8
V{{birth date and age|1964|3|17}}
p953
sg10
g17
sg12
VActor
p954
sa(dp955
g2
VJoe Peters
p956
sg4
Vhttps://upload.wikimedia.org/wikipedia/commons/9/96/Joe_Peters_working_on_the_Torch_October_2014.jpg
p957
sg6
g17
sg8
S'{{birth date and age |1983|11|25|}}'
p958
sg10
S'American'
p959
sg12
g17
sa(dp960
g2
VPeter Straub
p961
sg4
Vhttps://upload.wikimedia.org/wikipedia/en/4/48/Folder_Hexagonal_Icon.svg
p962
sg6
V{{URL|http://www.peterstraub.net}}
p963
sg8
V{{Birth date and age|1943|3|2}}
p964
sg10
VAmerican
p965
sg12
VNovelist, Poet
p966
sa(dp967
g2
VRachel Maddow
p968
sg4
Vhttps://upload.wikimedia.org/wikipedia/en/4/4a/Commons-logo.svg
p969
sg6
g17
sg8
V{{birth date and age|1973|04|01}}
p970
sg10
g17
sg12
VNews anchor, Political commentator, Television host
p971
sa(dp972
g2
VJack Weatherford
p973
sg4
Vhttps://upload.wikimedia.org/wikipedia/commons/2/27/Jack_Weatherford.jpg
p974
sg6
g17
sg8
g85
sg10
VAmerican
p975
sg12
Vprofessor, ethnographer, anthropologist
p976
sa(dp977
g2
VKat Martin
p978
sg4
g17
sg6
S'{{URL|http://www.KatBooks.com}}'
p979
sg8
S'{{Birth date and age|1947|7|14|mf=y}}'
p980
sg10
S'American'
p981
sg12
S'Novelist'
p982
sa(dp983
g2
VTom Brokaw
p984
sg4
Vhttps://upload.wikimedia.org/wikipedia/en/4/4a/Commons-logo.svg
p985
sg6
g17
sg8
V{{birth date and age|mf=yes|1940|2|6}}
p986
sg10
g17
sg12
VTelevision journalist, author
p987
sa(dp988
g2
VDeborah Perry Piscione
p989
sg4
Vhttps://upload.wikimedia.org/wikipedia/commons/0/09/Deborah_Perry_Piscione%2C_Secrets_of_Silicon_Valley.jpg
p990
sg6
g17
sg8
V
p991
sg10
g17
sg12
VEntrepreneur, author, public speaker, media commentator
p992
sa(dp993
g2
VAnnie Barrows
p994
sg4
Vhttps://upload.wikimedia.org/wikipedia/commons/b/b4/Ambox_important.svg
p995
sg6
g17
sg8
V1962
p996
sg10
g17
sg12
g17
sa(dp997
g2
VAnn Patchett
p998
sg4
Vhttps://upload.wikimedia.org/wikipedia/commons/4/43/Ann_Patchett_2012_Shankbone.JPG
p999
sg6
V{{URL|http://annpatchett.com}}
p1000
sg8
V{{Birth date and age|1963|12|2|mf=y}}
p1001
sg10
VAmerican
p1002
sg12
VNovelist, memoirist
p1003
sa(dp1004
g2
VTerry McMillan
p1005
sg4
Vhttps://upload.wikimedia.org/wikipedia/commons/e/e4/Terry_McMillan_at_the_2008_Brooklyn_Book_Festival.jpg
p1006
sg6
g85
sg8
V{{birth date and age|1951|10|18}}
p1007
sg10
VAmerican
p1008
sg12
VWriter
p1009
sa(dp1010
g2
VGarth Stein
p1011
sg4
g17
sg6
V{{URL|http://www.garthstein.com}}
p1012
sg8
VDecember 6, 1964
p1013
sg10
VAmerican
p1014
sg12
VWriter
p1015
sa(dp1016
g2
VMichael Lewis
p1017
sg4
Vhttps://upload.wikimedia.org/wikipedia/commons/e/e5/Michael_Lewis_2009.jpg
p1018
sg6
g17
sg8
V{{birth date and age|1960|10|15}}<ref name=Writer_Directory> {{cite book |chapter=Michael Lewis |title=The Writers Directory |location=publisher=[[St. James Press |year=2011 |accessdate=2012-03-04 |url=http://ic.galegroup.com/ic/bic1/ReferenceDetailsPage/ReferenceDetailsWindow?displayGroupName=Reference&disableHighlighting=false&prodId=BIC1&action=e&windowstate=normal&catId=&documentId=GALE%7CK1649564197&mode=view&userGroupName=fairfax_main&jsid=6cbb79b55781b1f5e7c9afecf86b3521 |id=GALE<nowiki>|</nowiki>K1649564197 |format=fee, via Fairfax County Public Library }} Gale Biography In Context. {{subscription}}</ref>
p1019
sg10
g17
sg12
VNon-fiction writer, journalist
p1020
sa(dp1021
g2
VLaura Bush
p1022
sg4
Vhttps://upload.wikimedia.org/wikipedia/commons/0/06/Wiktionary-logo-v2.svg
p1023
sg6
g17
sg8
V{{birth date and age|1946|11|4}}
p1024
sg10
g17
sg12
g17
sa(dp1025
g2
VEric Bolling
p1026
sg4
g17
sg6
g17
sg8
V{{birth date and age|1963|3|2}}
p1027
sg10
g17
sg12
VNews anchor, television personality
p1028
sa(dp1029
g2
VCaitlin Moran
p1030
sg4
Vhttps://upload.wikimedia.org/wikipedia/commons/f/f9/Caitlin_Moran_2013-05-17_001.tiff
p1031
sg6
g17
sg8
V{{Birth date and age|1975|4|5|df=y}}
p1032
sg10
g17
sg12
VJournalist, author, broadcaster
p1033
sa(dp1034
g2
VWill Allison
p1035
sg4
g17
sg6
V{{URL|http://www.willallison.com}}
p1036
sg8
V{{birth date and age|1968|10|22|mf=yes}}
p1037
sg10
VUnited States
p1038
sg12
Vnovelist
p1039
sa(dp1040
g2
VJonah Berger
p1041
sg4
Vhttps://upload.wikimedia.org/wikipedia/en/4/4c/Jonah_Berger_Headshot.jpg
p1042
sg6
g17
sg8
g17
sg10
g17
sg12
VWriter, Professor
p1043
sa(dp1044
g2
VMichael Chabon
p1045
sg4
Vhttps://upload.wikimedia.org/wikipedia/en/4/4a/Commons-logo.svg
p1046
sg6
V{{URL|michaelchabon.com}}
p1047
sg8
V{{birth date and age|mf=yes|1963|5|24}}
p1048
sg10
VAmerican
p1049
sg12
VNovelist, screenwriter, columnist, short-story writer
p1050
sa(dp1051
g2
VJimmy Connors
p1052
sg4
Vhttps://upload.wikimedia.org/wikipedia/en/4/4a/Commons-logo.svg
p1053
sg6
g17
sg8
V{{Birth date and age|mf=yes|1952|09|02}}
p1054
sg10
g17
sg12
g17
sa(dp1055
g2
VJeaniene Frost
p1056
sg4
Vhttps://upload.wikimedia.org/wikipedia/en/4/41/Jeaniene_Frost.jpg
p1057
sg6
V{{URL|http://jeanienefrost.com/}}
p1058
sg8
V{{Birth date and age|1974|06|13}}
p1059
sg10
VAmerican
p1060
sg12
g85
sa(dp1061
g2
VDavid Sheff
p1062
sg4
g17
sg6
g85
sg8
g85
sg10
g85
sg12
VWriter
p1063
sa(dp1064
g2
VJim Gaffigan
p1065
sg4
Vhttps://upload.wikimedia.org/wikipedia/commons/0/09/JimGaffiganMay2008.jpg
p1066
sg6
V{{URL|jimgaffigan.com}}
p1067
sg8
V{{birth date and age|1966|7|7}}
p1068
sg10
g17
sg12
g17
sa(dp1069
g2
VAmanda Knox
p1070
sg4
Vhttps://upload.wikimedia.org/wikipedia/en/0/03/Flag_of_Italy.svg
p1071
sg6
g85
sg8
V{{Birth date and age|mf=yes|1987|7|9}}
p1072
sg10
g17
sg12
VWriter
p1073
sa(dp1074
g2
VSophie Kinsella
p1075
sg4
Vhttps://upload.wikimedia.org/wikipedia/commons/b/b4/Ambox_important.svg
p1076
sg6
V{{URL|http://sophiekinsella.co.uk}}
p1077
sg8
V{{birth date and age|df=yes|1969|12|12}}
p1078
sg10
VBritish
p1079
sg12
VNovelist
p1080
sa(dp1081
g2
VJoyce Carol Oates
p1082
sg4
Vhttps://upload.wikimedia.org/wikipedia/en/4/4a/Commons-logo.svg
p1083
sg6
g17
sg8
V{{Birth date and age|1938|6|16}}
p1084
sg10
VAmerican
p1085
sg12
VNovelist, short story writer, playwright, poet, literary critic, professor, editor
p1086
sa(dp1087
g2
VBen Mezrich
p1088
sg4
Vhttps://upload.wikimedia.org/wikipedia/commons/d/dc/Ben_Mezrich_2011.jpg
p1089
sg6
g17
sg8
V{{Birth date and age|1969|02|07}}
p1090
sg10
VUSA
p1091
sg12
VWriter
p1092
sa(dp1093
g2
VJordan Belfort
p1094
sg4
Vhttps://upload.wikimedia.org/wikipedia/commons/8/89/Jordan_Belfort_-_May_30%2C_2010.jpg
p1095
sg6
V[http://www.jordanbelfort.com JordanBelfort.com]
p1096
sg8
V{{Birth date and age|1962|7|9}}
p1097
sg10
g17
sg12
V{{flatlist| *Author *entrepreneur *motivational speaker}}
p1098
sa(dp1099
g2
VBarbara Kingsolver
p1100
sg4
Vhttps://upload.wikimedia.org/wikipedia/commons/f/fa/Wikiquote-logo.svg
p1101
sg6
V{{URL|http://www.kingsolver.com}}
p1102
sg8
V{{birth date and age|1955|04|08|mf=yes}}
p1103
sg10
VUnited States
p1104
sg12
Vnovelist, poet, essayist
p1105
sa(dp1106
g2
VEric Van Lustbader
p1107
sg4
Vhttps://upload.wikimedia.org/wikipedia/commons/b/b4/Ambox_important.svg
p1108
sg6
g17
sg8
V1946
p1109
sg10
g17
sg12
Vnovelist
p1110
sa(dp1111
g2
VRandall Munroe
p1112
sg4
Vhttps://upload.wikimedia.org/wikipedia/en/4/4a/Commons-logo.svg
p1113
sg6
Vhttp://www.xkcd.com
p1114
sg8
V{{Birth date and age|mf=yes|1984|10|17}}<ref name = "facebook.com">{{cite web| first =Randall | last = Munroe | title = About |url=http://www.facebook.com/munroerandall?v=info | publisher = Facebook |date=1984-10-17 |accessdate=2013-04-01}}</ref><ref name = "wiki.xkcd.com">{{cite web|url = http://wiki.xkcd.com/wirc/index.php?title=Denizens&diff=prev&oldid=1315 |title = Difference between revisions of "Denizens" | date = 2008-05-06 | website = XKCD Wiki | accessdate = 2014-01-28 }}</ref>
p1115
sg10
VAmerican
p1116
sg12
g17
sa(dp1117
g2
VAlan Cumming
p1118
sg4
Vhttps://upload.wikimedia.org/wikipedia/en/4/4a/Commons-logo.svg
p1119
sg6
V{{URL|alancumming.com}}
p1120
sg8
V{{Birth date and age|df=yes|1965|1|27}}
p1121
sg10
VBritish / American
p1122
sg12
VActor, director, producer, writer
p1123
sa(dp1124
g2
VNalini Singh
p1125
sg4
Vhttps://upload.wikimedia.org/wikipedia/commons/0/0d/Newspaper_nicu_buculei_01.svg
p1126
sg6
g17
sg8
S'{{Birth date and age|1945|2|17|mf=y}}'
p1127
sg10
S'Indian'
p1128
sg12
S'Journalist author'
p1129
sa(dp1130
g2
VSusanna Kearsley
p1131
sg4
Vhttps://upload.wikimedia.org/wikipedia/en/c/cf/Flag_of_Canada.svg
p1132
sg6
V{{URL|http://susannakearsley.com/}}
p1133
sg8
VBrantford, Ontario
p1134
sg10
VCanada
p1135
sg12
VNovelist
p1136
sa(dp1137
g2
VFrancine Pascal
p1138
sg4
Vhttps://upload.wikimedia.org/wikipedia/commons/a/a4/Text_document_with_red_question_mark.svg
p1139
sg6
g85
sg8
V{{birth date and age|1938|05|13}}
p1140
sg10
VAmerican
p1141
sg12
VWriter
p1142
sa(dp1143
g2
VRobin Hobb
p1144
sg4
Vhttps://upload.wikimedia.org/wikipedia/en/4/4a/Commons-logo.svg
p1145
sg6
V{{url|www.robinhobb.com}}, {{url|www.meganlindholm.com}}
p1146
sg8
V{{Birth date and age|1952|3|5}}
p1147
sg10
VAmerican
p1148
sg12
VWriter
p1149
sa(dp1150
g2
VJohn Darnielle
p1151
sg4
Vhttps://upload.wikimedia.org/wikipedia/en/4/4a/Commons-logo.svg
p1152
sg6
g85
sg8
V{{birth date and age|1967|3|16}}
p1153
sg10
g17
sg12
VSinger-songwriter, musician, novelist
p1154
sa(dp1155
g2
VDavid Nasaw
p1156
sg4
Vhttps://upload.wikimedia.org/wikipedia/en/c/ce/PhotographofDavidNasawbyTiernan.jpg
p1157
sg6
g85
sg8
V{{birth date and age|1945|07|18}}
p1158
sg10
VAmerican
p1159
sg12
VArthur M. Schlesinger, Jr. Professor of History
p1160
sa(dp1161
g2
VWednesday Martin
p1162
sg4
Vhttps://upload.wikimedia.org/wikipedia/en/c/c6/PrimatesofParkAvenue.jpg
p1163
sg6
V{{URL|http://wednesdaymartin.com}}
p1164
sg8
g85
sg10
g17
sg12
VAuthor, Cultural critic, Social researcher
p1165
sa(dp1166
g2
VJames Luceno
p1167
sg4
g17
sg6
g17
sg8
V{{bya|1947}}
p1168
sg10
g17
sg12
VAuthor
p1169
sa(dp1170
g2
VNassim Nicholas Taleb
p1171
sg4
Vhttps://upload.wikimedia.org/wikipedia/en/f/f2/Edit-clear.svg
p1172
sg6
V{{URL|http://fooledbyrandomness.com}}
p1173
sg8
V{{birth year and age|1960}}
p1174
sg10
VLebanese (Antiochian Greek Origin) and American
p1175
sg12
g17
sa(dp1176
g2
VPhil Knight
p1177
sg4
Vhttps://upload.wikimedia.org/wikipedia/commons/b/bc/Philknightfootball.jpg
p1178
sg6
V[http://www.nikeinc.com Nike Corporation]
p1179
sg8
V{{Birth date and age|1938|2|24|mf=y}}
p1180
sg10
g17
sg12
VChairman of Nike, Inc.
p1181
sa(dp1182
g2
VTom Reiss
p1183
sg4
Vhttps://upload.wikimedia.org/wikipedia/en/4/45/Tom_Reiss_portrait_Paris1.jpg
p1184
sg6
V{{URL|www.tomreiss.com}}
p1185
sg8
V{{Birth date and age|1964|05|05}}
p1186
sg10
VAmerican
p1187
sg12
VWriter, historian, journalist
p1188
sa(dp1189
g2
VWillie Nelson
p1190
sg4
Vhttps://upload.wikimedia.org/wikipedia/en/6/69/P_vip.svg
p1191
sg6
V{{URL|willienelson.com}}
p1192
sg8
V{{birth date and age|1933|4|29}}
p1193
sg10
g17
sg12
V{{flatlist| *Musician *songwriter *producer *actor *activist *singer }}
p1194
sa(dp1195
g2
VRick Perlstein
p1196
sg4
Vhttps://upload.wikimedia.org/wikipedia/commons/2/26/Rick-Perlstein-seated-at-a-piano-selecting-music-March-2013.png
p1197
sg6
g17
sg8
V1969
p1198
sg10
g17
sg12
VWriter
p1199
sa(dp1200
g2
VAmy Poehler
p1201
sg4
Vhttps://upload.wikimedia.org/wikipedia/en/4/4a/Commons-logo.svg
p1202
sg6
g17
sg8
V{{birth date and age|1971|9|16}}
p1203
sg10
g17
sg12
V{{flatlist| * Actress * comedian * director * producer * writer }}
p1204
sa(dp1205
g2
VBrad Taylor
p1206
sg4
g17
sg6
g17
sg8
V{{Birth date and age|1997|3|14|df=yes}}
p1207
sg10
g17
sg12
g17
sa(dp1208
g2
VJulia Kent
p1209
sg4
Vhttps://upload.wikimedia.org/wikipedia/en/4/48/Folder_Hexagonal_Icon.svg
p1210
sg6
V
p1211
sg8
V
p1212
sg10
g17
sg12
VMusician
p1213
sa(dp1214
g2
VColleen Hoover
p1215
sg4
Vhttps://upload.wikimedia.org/wikipedia/commons/d/d9/CH_Signature.png
p1216
sg6
g17
sg8
V{{birth date and age|1979|12|11|mf=y}}
p1217
sg10
VAmerican
p1218
sg12
VAuthor
p1219
sa(dp1220
g2
VRebecca Zanetti
p1221
sg4
Vhttps://upload.wikimedia.org/wikipedia/commons/f/fe/Unbalanced_scales.svg
p1222
sg6
V{{URL|http://www.rebeccazanetti.com}}
p1223
sg8
g17
sg10
VAmerican
p1224
sg12
VWriter
p1225
sa(dp1226
g2
VJohn Waters
p1227
sg4
Vhttps://upload.wikimedia.org/wikipedia/en/4/4a/Commons-logo.svg
p1228
sg6
g17
sg8
V{{Birth date and age|1946|4|22}}
p1229
sg10
VAmerican
p1230
sg12
VFilm director, screenwriter, producer, actor
p1231
sa(dp1232
g2
VJenny Mollen
p1233
sg4
Vhttps://upload.wikimedia.org/wikipedia/commons/f/f6/Jenny_Mollen.jpg
p1234
sg6
g17
sg8
V{{birth date and age|mf=yes|1979|05|30}}
p1235
sg10
VAmerican
p1236
sg12
VActress
p1237
sa(dp1238
g2
VKim Stanley Robinson
p1239
sg4
Vhttps://upload.wikimedia.org/wikipedia/en/4/4a/Commons-logo.svg
p1240
sg6
g85
sg8
V{{birth date and age|1952|03|23}}
p1241
sg10
VAmerican
p1242
sg12
VWriter
p1243
sa(dp1244
g2
VLori Foster
p1245
sg4
Vhttps://upload.wikimedia.org/wikipedia/commons/b/b4/Ambox_important.svg
p1246
sg6
V{{URL|http://www.LoriFoster.com}}
p1247
sg8
g17
sg10
VAmerican
p1248
sg12
VNovelist
p1249
sa(dp1250
g2
VSusan Wiggs
p1251
sg4
g17
sg6
S'{{URL|http://www.susanwiggs.com}}'
p1252
sg8
g17
sg10
S'American'
p1253
sg12
S'Novelist'
p1254
sa(dp1255
g2
VAngie Martinez
p1256
sg4
g17
sg6
V[http://www.theangiemartinezshow.com/ TheAngieMartinezShow.com]
p1257
sg8
V{{birth date and age|mf=yes|1971|1|9}}
p1258
sg10
g17
sg12
VRadio personality , rapper, actress
p1259
sa(dp1260
g2
VLoretta Chase
p1261
sg4
g17
sg6
V{{URL|http://www.LorettaChase.com}}
p1262
sg8
V1949
p1263
sg10
VAmerican, Albanian
p1264
sg12
VNovelist
p1265
sa(dp1266
g2
VDavid Hackett Fischer
p1267
sg4
g17
sg6
g85
sg8
V{{birth date and age|1935|12|2}}
p1268
sg10
VUnited States
p1269
sg12
VProfessor
p1270
sa(dp1271
g2
VJustin Halpern
p1272
sg4
g17
sg6
V{{URL|https://twitter.com/shitmydadsays}}
p1273
sg8
V{{Birth date and age|1980|09|03|mf=y}}
p1274
sg10
VAmerican
p1275
sg12
VAuthor, screenwriter
p1276
sa(dp1277
g2
VNora Roberts
p1278
sg4
Vhttps://upload.wikimedia.org/wikipedia/en/4/4a/Commons-logo.svg
p1279
sg6
V{{URL|http://www.noraroberts.com/}}
p1280
sg8
V{{birth date and age|1950|10|10|mf=y}}
p1281
sg10
VAmerican
p1282
sg12
VNovelist
p1283
sa(dp1284
g2
VLaurence Leamer
p1285
sg4
Vhttps://upload.wikimedia.org/wikipedia/commons/1/13/Leamer_Pic.jpg
p1286
sg6
V{{URL|http://www.leamer.com}}
p1287
sg8
V{{Birth date|1941|10|30|mf=y}} (age 74)
p1288
sg10
VAmerican
p1289
sg12
VNon-fiction author, journalist
p1290
sa(dp1291
g2
VSharyl Attkisson
p1292
sg4
Vhttps://upload.wikimedia.org/wikipedia/commons/c/cd/AttkissonB52.jpg
p1293
sg6
V[http://www.sharylattkisson.com Official website]
p1294
sg8
VJanuary 26, 1961 (age 54)
p1295
sg10
g17
sg12
VWriter, journalist, television reporter/correspondent
p1296
sa(dp1297
g2
VJon Cryer
p1298
sg4
Vhttps://upload.wikimedia.org/wikipedia/en/4/4a/Commons-logo.svg
p1299
sg6
g17
sg8
V{{birth date and age|1965|4|16}}
p1300
sg10
g17
sg12
VActor, screenwriter, television director, producer, podcaster
p1301
sa(dp1302
g2
VJulia Glass
p1303
sg4
Vhttps://upload.wikimedia.org/wikipedia/commons/f/fa/Big_Book_blue.svg
p1304
sg6
g85
sg8
V{{birth date and age|1956|03|23}}
p1305
sg10
VAmerica
p1306
sg12
VNovelist
p1307
sa(dp1308
g2
VBrooke Shields
p1309
sg4
Vhttps://upload.wikimedia.org/wikipedia/en/4/4a/Commons-logo.svg
p1310
sg6
g17
sg8
V{{birth date and age|1965|5|31}}
p1311
sg10
g17
sg12
VActress, model
p1312
sa(dp1313
g2
VDavid Wroblewski
p1314
sg4
Vhttps://upload.wikimedia.org/wikipedia/commons/3/37/David_wroblewski_2009.jpg
p1315
sg6
g17
sg8
S'1959'
p1316
sg10
S'American'
p1317
sg12
S'Novelist, Software Research and Development'
p1318
sa(dp1319
g2
VTess Gerritsen
p1320
sg4
Vhttps://upload.wikimedia.org/wikipedia/commons/a/a8/TessGerritsenedit.jpg
p1321
sg6
S'{{URL|http://www.tessgerritsen.com}}'
p1322
sg8
S'{{birth date and age|mf=yes|1953|6|12}}'
p1323
sg10
S'American'
p1324
sg12
S'Author, medical doctor'
p1325
sa(dp1326
g2
VChad Harbach
p1327
sg4
Vhttps://upload.wikimedia.org/wikipedia/commons/6/64/Chad_harbach_2011.jpg
p1328
sg6
g17
sg8
g85
sg10
VAmerican
p1329
sg12
VEditor, writer
p1330
sa(dp1331
g2
VRaymond Khoury
p1332
sg4
g17
sg6
V{{URL|http://www.raymondkhoury.com}}
p1333
sg8
V{{birth year and age|1960}}
p1334
sg10
VLebanese-American
p1335
sg12
VNovelist, Screenwriter
p1336
sa(dp1337
g2
VJoseph Finder
p1338
sg4
Vhttps://upload.wikimedia.org/wikipedia/en/4/4a/Commons-logo.svg
p1339
sg6
V{{URL|http://www.josephfinder.com}}
p1340
sg8
V{{Birth year and age|1958}}
p1341
sg10
VAmerican
p1342
sg12
VNovelist
p1343
sa(dp1344
g2
VHelen Fielding
p1345
sg4
g17
sg6
g85
sg8
V{{Birth date and age|1958|2|19|df=y}}{{cn|date=April 2016}}
p1346
sg10
VEnglish
p1347
sg12
VNovelist, screenwriter
p1348
sa(dp1349
g2
VCathleen Schine
p1350
sg4
Vhttps://upload.wikimedia.org/wikipedia/commons/f/fa/Big_Book_blue.svg
p1351
sg6
g17
sg8
g17
sg10
g17
sg12
g17
sa(dp1352
g2
VTed Dekker
p1353
sg4
Vhttps://upload.wikimedia.org/wikipedia/en/9/99/Question_book-new.svg
p1354
sg6
V{{URL|http://www.TedDekker.com/}}
p1355
sg8
V{{birth date and age|1962|10|24}}<ref name="About Ted">[http://www.teddekker.com/about/ "About Ted"] ''Teddekker.com'' April, 2010</ref>
p1356
sg10
g17
sg12
VNovelist
p1357
sa(dp1358
g2
VLauren Bacall
p1359
sg4
Vhttps://upload.wikimedia.org/wikipedia/en/4/4a/Commons-logo.svg
p1360
sg6
g17
sg8
V{{birth date|1924|9|16}}
p1361
sg10
g17
sg12
VActress, model
p1362
sa(dp1363
g2
VAndre Dubus III
p1364
sg4
Vhttps://upload.wikimedia.org/wikipedia/en/4/4a/Commons-logo.svg
p1365
sg6
V{{URL|http://andredubus.com}}
p1366
sg8
VSeptember 11, 1959
p1367
sg10
VAmerican
p1368
sg12
VNovelist, short story writer, Professor
p1369
sa(dp1370
g2
VDenis Johnson
p1371
sg4
g17
sg6
g85
sg8
V{{birth date and age|1949|7|1}}
p1372
sg10
VAmerican
p1373
sg12
VNovelist, poet, playwright
p1374
sa(dp1375
g2
VBob Woodward
p1376
sg4
Vhttps://upload.wikimedia.org/wikipedia/commons/f/fa/Wikiquote-logo.svg
p1377
sg6
g17
sg8
V{{Birth date and age|mf=yes|1943|03|26}}
p1378
sg10
g17
sg12
VJournalist
p1379
sa(dp1380
g2
VTawny Weber
p1381
sg4
g17
sg6
V{{URL|http://www.tawnyweber.com/}}
p1382
sg8
g85
sg10
VAmerican
p1383
sg12
VNovelist
p1384
sa(dp1385
g2
VRichard Dawkins
p1386
sg4
Vhttps://upload.wikimedia.org/wikipedia/en/a/ae/Flag_of_the_United_Kingdom.svg
p1387
sg6
V{{official website}}
p1388
sg8
V{{Birth date and age|1941|3|26|df=y}}
p1389
sg10
g17
sg12
g17
sa(dp1390
g2
VAnn Rule
p1391
sg4
g17
sg6
V{{URL|http://www.authorannrule.com/}}
p1392
sg8
VOctober 22, 1931
p1393
sg10
g85
sg12
VWriter
p1394
sa(dp1395
g2
VAce Atkins
p1396
sg4
Vhttps://upload.wikimedia.org/wikipedia/commons/9/99/MG_9169_copy.jpg
p1397
sg6
V
p1398
sg8
V{{birth date and age|mf=yes|1970|06|28}}
p1399
sg10
VUnited States
p1400
sg12
VNovelist
p1401
sa(dp1402
g2
VPierce Brown
p1403
sg4
Vhttps://upload.wikimedia.org/wikipedia/commons/1/1b/PierceBrown.jpg
p1404
sg6
Vwww.pierce-brown.com
p1405
sg8
V{{birth date and age|1988|01|28}}
p1406
sg10
g17
sg12
VNovelist and screenwriter
p1407
sa(dp1408
g2
VKelley Armstrong
p1409
sg4
Vhttps://upload.wikimedia.org/wikipedia/en/c/c8/Kelley_Armstrong_Signing.jpg
p1410
sg6
V{{URL|http://www.kelleyarmstrong.com}}
p1411
sg8
V{{Birth date and age|df=yes|1968|12|14}}
p1412
sg10
VCanadian
p1413
sg12
VNovelist
p1414
sa(dp1415
g2
VJohn Edward
p1416
sg4
Vhttps://upload.wikimedia.org/wikipedia/en/4/4a/Commons-logo.svg
p1417
sg6
V[http://www.johnedward.net/ johnedward.net] [http://www.infinitequest.com/ InfiniteQuest.com]
p1418
sg8
V{{birth date and age|mf=yes|1969|10|19}}
p1419
sg10
g17
sg12
Vpsychic medium
p1420
sa(dp1421
g2
VMallory Factor
p1422
sg4
Vhttps://upload.wikimedia.org/wikipedia/commons/9/9e/Business_photo.pic.jpg
p1423
sg6
V{{url|http://malloryfactor.com}}
p1424
sg8
VJuly 16, 1950
p1425
sg10
VAmerican
p1426
sg12
VTeacher at The Citadel, The Military College of South Carolina, formerly a banker and public relations specialist
p1427
sa(dp1428
g2
VDavid Weber
p1429
sg4
Vhttps://upload.wikimedia.org/wikipedia/en/4/4a/Commons-logo.svg
p1430
sg6
S'{{URL|http://www.davidweber.net/}}'
p1431
sg8
S'{{Birth date and age|1952|10|24}}'
p1432
sg10
g17
sg12
S'Novelist, short story author'
p1433
sa(dp1434
g2
VAdam Hochschild
p1435
sg4
g17
sg6
g17
sg8
V{{birth date and age|1942|10|5}}
p1436
sg10
g17
sg12
VWriter, journalist
p1437
sa(dp1438
g2
VMeg Waite Clayton
p1439
sg4
Vhttps://upload.wikimedia.org/wikipedia/en/5/55/Novelist_Meg_Waite_Clayton.jpg
p1440
sg6
V{{URL|http://www.megwaiteclayton.com/}}
p1441
sg8
VJanuary 1, 1959
p1442
sg10
VAmerican
p1443
sg12
VNovelist, Essayist
p1444
sa(dp1445
g2
VMary Higgins Clark
p1446
sg4
Vhttps://upload.wikimedia.org/wikipedia/en/4/4a/Commons-logo.svg
p1447
sg6
g17
sg8
V{{Birth date and age|1927|12|24||mf=yes}}
p1448
sg10
VAmerican
p1449
sg12
VNovelist
p1450
sa(dp1451
g2
VChrissie Hynde
p1452
sg4
Vhttps://upload.wikimedia.org/wikipedia/en/4/4a/Commons-logo.svg
p1453
sg6
g85
sg8
V{{birth date and age|1951|09|07}}
p1454
sg10
g17
sg12
VSinger, songwriter, musician
p1455
sa(dp1456
g2
VIris Johansen
p1457
sg4
Vhttps://upload.wikimedia.org/wikipedia/en/9/99/Question_book-new.svg
p1458
sg6
S'{{URL|http://www.irisjohansen.com/}}'
p1459
sg8
S'{{Birth date and age|1938|4|7|mf=y}}'
p1460
sg10
S'American'
p1461
sg12
S'novelist'
p1462
sa(dp1463
g2
VDavid Eagleman
p1464
sg4
Vhttps://upload.wikimedia.org/wikipedia/commons/9/9d/David_Eagleman_speaking_at_UP2011.jpg
p1465
sg6
V{{URL|www.eagleman.com}}<br/>{{URL|www.eaglemanlab.net}}
p1466
sg8
V{{birth-date and age|April 25, 1971}}
p1467
sg10
VAmerican
p1468
sg12
g17
sa(dp1469
g2
VKate Morton
p1470
sg4
Vhttps://upload.wikimedia.org/wikipedia/commons/1/1c/Kate_Morton_07.jpg
p1471
sg6
V{{URL|http://www.katemorton.com/}}
p1472
sg8
V{{birth year and age|1976}}
p1473
sg10
VAustralian
p1474
sg12
Vauthor
p1475
sa(dp1476
g2
VReza Aslan
p1477
sg4
Vhttps://upload.wikimedia.org/wikipedia/en/4/4a/Commons-logo.svg
p1478
sg6
V{{URL|www.rezaaslan.com|Official website}}
p1479
sg8
V{{birth date and age|mf=yes|1972|5|3}}
p1480
sg10
g17
sg12
VAcademic, writer, producer, TV host
p1481
sa(dp1482
g2
VLauren Weisberger
p1483
sg4
Vhttps://upload.wikimedia.org/wikipedia/commons/0/02/Lauren_Weisberger.jpg
p1484
sg6
V{{URL|http://www.laurenweisberger.com}}
p1485
sg8
V{{birth date and age|1977|3|28}}
p1486
sg10
VU.S.
p1487
sg12
VNovelist, Journalist
p1488
sa(dp1489
g2
VRinker Buck
p1490
sg4
Vhttps://upload.wikimedia.org/wikipedia/en/6/6c/Wiki_letter_w.svg
p1491
sg6
g17
sg8
V{{birth date and age|1950|12|29}}
p1492
sg10
VAmerican
p1493
sg12
Vauthor, journalist
p1494
sa(dp1495
g2
VSue Grafton
p1496
sg4
Vhttps://upload.wikimedia.org/wikipedia/commons/3/35/SueGrafton.jpg
p1497
sg6
V{{URL|suegrafton.com}}
p1498
sg8
V{{Birth date and age|1940|04|24}}
p1499
sg10
VAmerican
p1500
sg12
VNovelist
p1501
sa(dp1502
g2
VChrystia Freeland
p1503
sg4
Vhttps://upload.wikimedia.org/wikipedia/en/4/4a/Commons-logo.svg
p1504
sg6
g17
sg8
V{{birth date and age|1968|8|2}}
p1505
sg10
g17
sg12
VJournalist, author
p1506
sa(dp1507
g2
VPhil Mason
p1508
sg4
Vhttps://upload.wikimedia.org/wikipedia/commons/b/b2/Thunderf00t.jpg
p1509
sg6
V
p1510
sg8
V{{Birth year and age|1972}}
p1511
sg10
g85
sg12
g17
sa(dp1512
g2
VWilliam Landay
p1513
sg4
Vhttps://upload.wikimedia.org/wikipedia/commons/f/f3/William_landay.jpg
p1514
sg6
V{{URL|www.williamlanday.com}}
p1515
sg8
g17
sg10
VUSA
p1516
sg12
Vlawyer, author
p1517
sa(dp1518
g2
VAyaan Hirsi Ali
p1519
sg4
Vhttps://upload.wikimedia.org/wikipedia/en/4/4a/Commons-logo.svg
p1520
sg6
g17
sg8
V{{Birth date and age|df=yes|1969|11|13}}
p1521
sg10
g17
sg12
VPolitician, author
p1522
sa(dp1523
g2
VDavid Frum
p1524
sg4
Vhttps://upload.wikimedia.org/wikipedia/en/4/4a/Commons-logo.svg
p1525
sg6
V{{URL|http://www.frumforum.com}}
p1526
sg8
V{{birth date and age|1960|06|30}}
p1527
sg10
g85
sg12
VJournalist, author, speechwriter
p1528
sa(dp1529
g2
VThomas Piketty
p1530
sg4
Vhttps://upload.wikimedia.org/wikipedia/en/4/4a/Commons-logo.svg
p1531
sg6
g17
sg8
V{{Birth date and age|1971|05|07|df=y}}
p1532
sg10
VFrance
p1533
sg12
g17
sa(dp1534
g2
VAshlee Vance
p1535
sg4
Vhttps://upload.wikimedia.org/wikipedia/commons/b/b6/Ashlee_Vance.gk.jpg
p1536
sg6
V[http://www.theduckrabbit.com The Duckrabbit]
p1537
sg8
V{{birth year and age|1977}}
p1538
sg10
g17
sg12
g17
sa(dp1539
g2
VDana Perino
p1540
sg4
Vhttps://upload.wikimedia.org/wikipedia/commons/5/5e/US-WhiteHouse-Logo.svg
p1541
sg6
g17
sg8
V{{birth date and age|1972|5|9}}
p1542
sg10
g17
sg12
g17
sa(dp1543
g2
VHanya Yanagihara
p1544
sg4
g17
sg6
g85
sg8
V1975
p1545
sg10
VAmerican
p1546
sg12
VAuthor, writer, journalist
p1547
sa(dp1548
g2
VSanjay Gupta
p1549
sg4
Vhttps://upload.wikimedia.org/wikipedia/en/4/4a/Commons-logo.svg
p1550
sg6
g17
sg8
V{{birth date and age|1969|10|23}}
p1551
sg10
VAmerican
p1552
sg12
VJournalist and neurosurgeon
p1553
sa(dp1554
g2
VAlan Furst
p1555
sg4
Vhttps://upload.wikimedia.org/wikipedia/en/c/c8/Alan.Furst.png
p1556
sg6
Valanfurst.net
p1557
sg8
VFebruary 20, 1941
p1558
sg10
g85
sg12
VNovelist, poet, journalist
p1559
sa(dp1560
g2
VDoris Kearns Goodwin
p1561
sg4
Vhttps://upload.wikimedia.org/wikipedia/commons/f/f6/DIG13890-059.jpg
p1562
sg6
V{{URL|doriskearnsgoodwin.com}}
p1563
sg8
V{{birth date and age|1943|01|04}}
p1564
sg10
VAmerican
p1565
sg12
VHistorian, author, political commentator
p1566
sa(dp1567
g2
VShirley MacLaine
p1568
sg4
Vhttps://upload.wikimedia.org/wikipedia/en/4/4a/Commons-logo.svg
p1569
sg6
V{{URL|shirleymaclaine.com}}
p1570
sg8
V{{birth date and age|1934|4|24|}}
p1571
sg10
g17
sg12
VActress, singer, dancer, author, activist
p1572
sa(dp1573
g2
VLois McMaster Bujold
p1574
sg4
Vhttps://upload.wikimedia.org/wikipedia/en/4/4a/Commons-logo.svg
p1575
sg6
V{{URL|dendarii.com}}
p1576
sg8
V{{Birth date and age|1949|11|2|mf=y}}
p1577
sg10
VAmerican
p1578
sg12
VNovelist
p1579
sa(dp1580
g2
VNelson DeMille
p1581
sg4
Vhttps://upload.wikimedia.org/wikipedia/commons/1/13/Nelson_DeMille_Headshot.jpg
p1582
sg6
V{{URL|http://www.nelsondemille.net}}
p1583
sg8
V{{birth date and age|1943|8|23}}
p1584
sg10
VAmerican
p1585
sg12
VNovelist
p1586
sa(dp1587
g2
VHilary Mantel
p1588
sg4
Vhttps://upload.wikimedia.org/wikipedia/commons/c/c1/Hilary_mantell_in_bookclub_b03c2mys.flac
p1589
sg6
V{{URL|Hilary-Mantel.com}}
p1590
sg8
V{{birth date and age|df=yes|1952|7|6}}
p1591
sg10
VBritish
p1592
sg12
VNovelist, short story writer, essayist and critic
p1593
sa(dp1594
g2
VChelsea Cain
p1595
sg4
Vhttps://upload.wikimedia.org/wikipedia/commons/2/24/Chelsea_Cain.jpg
p1596
sg6
S'{{URL|http://www.chelseacain.com/}}'
p1597
sg8
g17
sg10
S'{{USA}}'
p1598
sg12
S'Novelist, columnist'
p1599
sa(dp1600
g2
VPhil Klay
p1601
sg4
Vhttps://upload.wikimedia.org/wikipedia/en/4/4a/Commons-logo.svg
p1602
sg6
Vhttp://www.philklay.com
p1603
sg8
V1983
p1604
sg10
g17
sg12
VWriter
p1605
sa(dp1606
g2
VMary Roach
p1607
sg4
Vhttps://upload.wikimedia.org/wikipedia/en/4/4a/Commons-logo.svg
p1608
sg6
V{{URL|http://www.maryroach.net/}}
p1609
sg8
V{{birth date and age|1959|3|20}}
p1610
sg10
VAmerican
p1611
sg12
VAuthor (non-fiction); humorist
p1612
sa(dp1613
g2
VAnthony Doerr
p1614
sg4
g17
sg6
V{{URL|http://www.anthonydoerr.com}}
p1615
sg8
V{{birth year and age|1973}}
p1616
sg10
VAmerican
p1617
sg12
VNovelist
p1618
sa(dp1619
g2
VJulie Garwood
p1620
sg4
g17
sg6
V{{URL|juliegarwood.com/}}
p1621
sg8
V1944
p1622
sg10
VAmerican
p1623
sg12
VNovelist
p1624
sa(dp1625
g2
VChris Culver
p1626
sg4
Vhttps://upload.wikimedia.org/wikipedia/en/4/4a/Commons-logo.svg
p1627
sg6
V{{URL|http://www.indiecrime.com/}}
p1628
sg8
g17
sg10
VAmerican
p1629
sg12
VNovelist
p1630
sa(dp1631
g2
VDon Winslow
p1632
sg4
Vhttps://upload.wikimedia.org/wikipedia/commons/2/25/El_escritor_Don_Winslow.jpg
p1633
sg6
V{{URL|http://donwinslow.com}}
p1634
sg8
V{{Birth date and age|1953|10|31|mf=y}}
p1635
sg10
VAmerican
p1636
sg12
VNovelist, screenwriter
p1637
sa(dp1638
g2
VHarper Lee
p1639
sg4
Vhttps://upload.wikimedia.org/wikipedia/en/4/4a/Commons-logo.svg
p1640
sg6
g17
sg8
V{{Birth date|1926|4|28}}
p1641
sg10
VAmerican
p1642
sg12
VNovelist
p1643
sa(dp1644
g2
VRonald Kessler
p1645
sg4
Vhttps://upload.wikimedia.org/wikipedia/commons/4/4b/Books-aj.svg_aj_ashton_01.svg
p1646
sg6
V{{URL|http://www.ronaldkessler.com/}}
p1647
sg8
V{{Birth date and age|1943|12|31}}
p1648
sg10
g17
sg12
VJournalist, author
p1649
sa(dp1650
g2
VJonathan Tropper
p1651
sg4
g17
sg6
V{{URL|http://www.jonathantropper.com}}
p1652
sg8
V{{Birth date and age|1970|02|19|mf=y}}
p1653
sg10
VAmerican
p1654
sg12
VScreenwriter, author, professor
p1655
sa(dp1656
g2
VRita Mae Brown
p1657
sg4
Vhttps://upload.wikimedia.org/wikipedia/commons/f/fa/Wikiquote-logo.svg
p1658
sg6
V{{URL|http://www.ritamaebrownbooks.com/}}
p1659
sg8
V{{Birth date and age|1944|11|28}}
p1660
sg10
VAmerican
p1661
sg12
Vnovelist, poet, screenwriter, activist
p1662
sa(dp1663
g2
VWalter Lord
p1664
sg4
Vhttps://upload.wikimedia.org/wikipedia/en/6/6c/Walter_Lord.jpg
p1665
sg6
g85
sg8
V{{birth date|1917|10|8}}
p1666
sg10
VAmerican
p1667
sg12
VHistorian
p1668
sa(dp1669
g2
VJoe Schreiber
p1670
sg4
g17
sg6
g17
sg8
V1969 
p1671
sg10
VAmerican
p1672
sg12
VWriter, MRI technician
p1673
sa(dp1674
g2
VJunot Daz
p1675
sg4
Vhttps://upload.wikimedia.org/wikipedia/en/4/4a/Commons-logo.svg
p1676
sg6
V{{URL|http://junotdiaz.com/}}
p1677
sg8
V{{birth date and age|1968|12|31}}
p1678
sg10
VAmerican, Dominican
p1679
sg12
VNovelist, professor, writer
p1680
sa(dp1681
g2
VCharles Frazier
p1682
sg4
g17
sg6
g85
sg8
V{{Birth date and age|1950|11|4|mf=y}}
p1683
sg10
VAmerican
p1684
sg12
VWriter
p1685
sa(dp1686
g2
VKelly Oxford
p1687
sg4
g17
sg6
g17
sg8
S'{{bya|1977}}'
p1688
sg10
S'Canadian'
p1689
sg12
S'writer'
p1690
sa(dp1691
g2
VCarrie Brownstein
p1692
sg4
Vhttps://upload.wikimedia.org/wikipedia/en/4/4a/Commons-logo.svg
p1693
sg6
g17
sg8
V{{Birth date and age|1974|09|27}}
p1694
sg10
g17
sg12
V{{flatlist| *Musician *writer *actress }}
p1695
sa(dp1696
g2
VJonathan Haidt
p1697
sg4
Vhttps://upload.wikimedia.org/wikipedia/commons/c/ca/Jonathan_Haidt_2012_03.jpg
p1698
sg6
V{{URL|http://people.stern.nyu.edu/jhaidt/}}
p1699
sg8
V{{birth date and age|1963|10|19}}
p1700
sg10
g85
sg12
g17
sa(dp1701
g2
VEleanor Catton
p1702
sg4
Vhttps://upload.wikimedia.org/wikipedia/en/4/4a/Commons-logo.svg
p1703
sg6
V{{url|http://eleanor-catton.com/}}
p1704
sg8
V{{birth date and age|1985|9|24|df=y}}
p1705
sg10
VNew Zealand
p1706
sg12
VNovelist
p1707
sa(dp1708
g2
VSalman Rushdie
p1709
sg4
Vhttps://upload.wikimedia.org/wikipedia/en/4/4a/Commons-logo.svg
p1710
sg6
g17
sg8
V{{birth date and age|1947|6|19|df=yes}}
p1711
sg10
g17
sg12
VWriter
p1712
sa(dp1713
g2
VChris Bohjalian
p1714
sg4
Vhttps://upload.wikimedia.org/wikipedia/en/3/30/Chris_bohjalian_1.jpg
p1715
sg6
g17
sg8
V{{birth date and age|1962|8|12}}
p1716
sg10
g17
sg12
VNovelist
p1717
sa(dp1718
g2
VDave Barry
p1719
sg4
Vhttps://upload.wikimedia.org/wikipedia/en/b/b3/Dave_Barry_signature.jpg
p1720
sg6
V{{URL|http://www.davebarry.com}}
p1721
sg8
V{{Birth date and age|1947|7|3|mf=y}}
p1722
sg10
VAmerican
p1723
sg12
VHumorist, Author
p1724
sa(dp1725
g2
VMatthew Desmond
p1726
sg4
Vhttps://upload.wikimedia.org/wikipedia/en/c/c2/Crystal_Clear_app_Login_Manager_2.png
p1727
sg6
g17
sg8
g17
sg10
g17
sg12
g17
sa(dp1728
g2
VPatricia Cornwell
p1729
sg4
Vhttps://upload.wikimedia.org/wikipedia/commons/b/bd/Patricia_Cornwell.jpg
p1730
sg6
V{{URL|www.patriciacornwell.com}}
p1731
sg8
V{{Birth date and age|1956|6|9}}
p1732
sg10
VAmerican
p1733
sg12
VNovelist
p1734
sa(dp1735
g2
VMalcolm Gladwell
p1736
sg4
Vhttps://upload.wikimedia.org/wikipedia/commons/d/d1/Malcolmgladwell.jpg
p1737
sg6
g17
sg8
V{{Birth date and age|1963|9|03}}
p1738
sg10
g17
sg12
VNon-fiction writer, journalist
p1739
sa(dp1740
g2
VGarrison Keillor
p1741
sg4
Vhttps://upload.wikimedia.org/wikipedia/en/4/4a/Commons-logo.svg
p1742
sg6
g85
sg8
V{{birth date and age|1942|08|7}}
p1743
sg10
g17
sg12
g17
sa(dp1744
g2
VJude Deveraux
p1745
sg4
g17
sg6
V{{URL|http://judedeveraux.com}}
p1746
sg8
V{{Birth date and age|1947|9|20|mf=y}}
p1747
sg10
VAmerican
p1748
sg12
VNovelist
p1749
sa(dp1750
g2
VAbbi Glines
p1751
sg4
g17
sg6
V{{URL|www.abbiglines.com}}
p1752
sg8
V{{birth date and age|1977|04|16}}
p1753
sg10
VAmerican
p1754
sg12
g85
sa(dp1755
g2
VDavid Sedaris
p1756
sg4
Vhttps://upload.wikimedia.org/wikipedia/en/4/4a/Commons-logo.svg
p1757
sg6
g85
sg8
V{{Birth date and age|1956|12|26}}
p1758
sg10
VAmerican
p1759
sg12
g85
sa(dp1760
g2
VLuanne Rice
p1761
sg4
g17
sg6
V{{URL|http://LuanneRice.net}}
p1762
sg8
V{{Birth date|1955|9|25|mf=y}}
p1763
sg10
VAmerican
p1764
sg12
VNovelist
p1765
sa(dp1766
g2
VKazuo Ishiguro
p1767
sg4
Vhttps://upload.wikimedia.org/wikipedia/commons/4/41/Cast_of_Never_Let_Me_Go_%40_BFI_Film_Festival.jpg
p1768
sg6
g85
sg8
V{{Birth date and age|1954|11|8}}
p1769
sg10
g17
sg12
VNovelist, short story writer, screenwriter, columnist, songwriter
p1770
sa(dp1771
g2
VSusannah Cahalan
p1772
sg4
Vhttps://upload.wikimedia.org/wikipedia/en/2/24/Crystal_personal.svg
p1773
sg6
g17
sg8
V1985
p1774
sg10
VAmerican
p1775
sg12
VJournalist, author
p1776
sa(dp1777
g2
VMaggie Shipstead
p1778
sg4
Vhttps://upload.wikimedia.org/wikipedia/commons/0/0a/Quill_and_ink-US.svg
p1779
sg6
V{{url|http://www.maggieshipstead.com}}
p1780
sg8
V1983
p1781
sg10
VAmerican
p1782
sg12
VNovelist
p1783
sa(dp1784
g2
VCharles Krauthammer
p1785
sg4
Vhttps://upload.wikimedia.org/wikipedia/commons/f/fa/Wikiquote-logo.svg
p1786
sg6
g17
sg8
V{{Birth date and age|mf=yes|1950|03|13}}
p1787
sg10
g17
sg12
VColumnist, author, commentator, journalist, physician
p1788
sa(dp1789
g2
VChuck Klosterman
p1790
sg4
Vhttps://upload.wikimedia.org/wikipedia/en/4/4a/Commons-logo.svg
p1791
sg6
g17
sg8
V{{Birth date and age|1972|6|5|df=}}
p1792
sg10
VAmerican
p1793
sg12
VAuthor, columnist
p1794
sa(dp1795
g2
VKelly Corrigan
p1796
sg4
Vhttps://upload.wikimedia.org/wikipedia/commons/a/a9/Corrigan.jpg
p1797
sg6
V{{URL|kellycorrigan.com}}
p1798
sg8
V{{birth-date and age|August 16, 1967 }}
p1799
sg10
g17
sg12
VWriter
p1800
sa(dp1801
g2
VFrances Mayes
p1802
sg4
g17
sg6
S'www.francesemayes.com'
p1803
sg8
S'April 4, 1940'
p1804
sg10
S'American'
p1805
sg12
S'Memoirist, Novelist, Poet, Professor'
p1806
sa(dp1807
g2
VAndre Dubus
p1808
sg4
Vhttps://upload.wikimedia.org/wikipedia/commons/f/fa/Wikiquote-logo.svg
p1809
sg6
g17
sg8
V{{Birth date|1936|8|11}}
p1810
sg10
VAmerican
p1811
sg12
Vshort story writer, novelist, teacher
p1812
sa(dp1813
g2
VMartin Gilbert
p1814
sg4
Vhttps://upload.wikimedia.org/wikipedia/commons/c/c2/MartinGilbertBGUHonDoctor_crop.jpg
p1815
sg6
g17
sg8
V{{birth date|1936|10|25|df=y}}
p1816
sg10
VBritish
p1817
sg12
VHistorian, author
p1818
sa(dp1819
g2
VPaul Allen
p1820
sg4
Vhttps://upload.wikimedia.org/wikipedia/en/4/4a/Commons-logo.svg
p1821
sg6
V{{URL|paulallen.com}}
p1822
sg8
V{{Birth date and age|1953|1|21}}
p1823
sg10
g17
sg12
VPhilanthropist, investor, entrepreneur, author, sports owner, guitarist, filmmaker, explorer, neuroscience supporter and space pioneer
p1824
sa(dp1825
g2
VJames Frey
p1826
sg4
Vhttps://upload.wikimedia.org/wikipedia/en/6/69/P_vip.svg
p1827
sg6
V{{URL|http://bigjimindustries.com/}}
p1828
sg8
V{{birth date and age|1969|9|12|mf=y}}
p1829
sg10
VAmerican
p1830
sg12
V{{hlist |Writer |Media producer}}
p1831
sa(dp1832
g2
VGabrielle Zevin
p1833
sg4
Vhttps://upload.wikimedia.org/wikipedia/commons/f/fa/Big_Book_blue.svg
p1834
sg6
g17
sg8
S'{{Birth date and age|1977|10|24}}'
p1835
sg10
S'American'
p1836
sg12
S'Author'
p1837
sa(dp1838
g2
VJared Diamond
p1839
sg4
Vhttps://upload.wikimedia.org/wikipedia/en/4/4a/Commons-logo.svg
p1840
sg6
g85
sg8
V{{Birth date and age|1937|9|10|mf=y}}
p1841
sg10
g85
sg12
g17
sa(dp1842
g2
VKim Edwards
p1843
sg4
g17
sg6
V{{URL|http://kimedwardsbooks.com/}}
p1844
sg8
V{{Birth date and age|1958|05|04}}
p1845
sg10
VAmerican
p1846
sg12
VAuthor
p1847
sa(dp1848
g2
VMichelle Alexander
p1849
sg4
Vhttps://upload.wikimedia.org/wikipedia/commons/a/a9/Michelle_Alexander_2011_02.jpg
p1850
sg6
g17
sg8
V{{birth date and age|1967|10|7}}
p1851
sg10
VAmerican
p1852
sg12
g17
sa(dp1853
g2
VAlice Hoffman
p1854
sg4
Vhttps://upload.wikimedia.org/wikipedia/commons/b/b4/Ambox_important.svg
p1855
sg6
V{{URL|http://www.alicehoffman.com/}}
p1856
sg8
V{{Birth date and age|1952|3|16|mf=y}}
p1857
sg10
VAmerican
p1858
sg12
Vyoung-adult writer, children's writer
p1859
sa(dp1860
g2
VArmistead Maupin
p1861
sg4
Vhttps://upload.wikimedia.org/wikipedia/en/4/4a/Commons-logo.svg
p1862
sg6
g17
sg8
V{{Birth date and age|1944|5|13}}
p1863
sg10
g17
sg12
VAuthor
p1864
sa(dp1865
g2
VDale Archer
p1866
sg4
Vhttps://upload.wikimedia.org/wikipedia/en/5/5e/Philosophy01.jpg
p1867
sg6
S'http://drdalearcher.com'
p1868
sg8
g17
sg10
g17
sg12
S'Psychiatrist, Television Personality'
p1869
sa(dp1870
g2
VSusan Cain
p1871
sg4
Vhttps://upload.wikimedia.org/wikipedia/en/4/4a/Commons-logo.svg
p1872
sg6
V{{URL|http://www.quietrev.com/}}
p1873
sg8
VEarly {{Birth year and age|1968}}<ref name="AriannaHuffington20120406"/> 
p1874
sg10
VU.S.
p1875
sg12
VWriter, former lawyer and negotiations consultant<ref name="Wired20120302"/>
p1876
sa(dp1877
g2
VAnne Lamott
p1878
sg4
Vhttps://upload.wikimedia.org/wikipedia/commons/a/a8/Anne-Lamott-2013-San-Francisco.jpg
p1879
sg6
g17
sg8
V{{birth date and age|1954|4|10}}
p1880
sg10
VAmerican
p1881
sg12
VNovelist, non-fiction writer, essayist, memoirist
p1882
sa(dp1883
g2
VBernard Cornwell
p1884
sg4
Vhttps://upload.wikimedia.org/wikipedia/commons/7/7c/Bernard_Cornwell.jpg
p1885
sg6
V{{URL|http://www.bernardcornwell.net/}}
p1886
sg8
V{{Birth date and age|1944|02|23|df=yes}}
p1887
sg10
VBritish, American
p1888
sg12
VAuthor
p1889
sa(dp1890
g2
VRichard Russo
p1891
sg4
Vhttps://upload.wikimedia.org/wikipedia/commons/a/a2/Richard_Russo.jpg
p1892
sg6
g17
sg8
V{{birth date and age|1949|7|15|mf=y}}
p1893
sg10
VAmerican
p1894
sg12
Vshort-story writer
p1895
sa(dp1896
g2
VAnnie Proulx
p1897
sg4
Vhttps://upload.wikimedia.org/wikipedia/commons/8/8f/Annie_Proulx_Frankfurt_Book_Fair_Conference_2009.jpg
p1898
sg6
g17
sg8
V{{birth date and age|1935|8|22}}
p1899
sg10
g17
sg12
VNovelist
p1900
sa(dp1901
g2
VFannie Flagg
p1902
sg4
Vhttps://upload.wikimedia.org/wikipedia/en/9/99/Question_book-new.svg
p1903
sg6
g17
sg8
V{{birth date and age|1944|9|21}}
p1904
sg10
g17
sg12
V{{Plain list | * Actress * Author }}
p1905
sa(dp1906
g2
VBryan Stevenson
p1907
sg4
Vhttps://upload.wikimedia.org/wikipedia/commons/1/11/Bryan_Stevenson_at_TED_2012.jpg
p1908
sg6
V[http://bryanstevenson.com/ BryanStevenson.com]
p1909
sg8
V{{Birth date and age|1959|11|14}}
p1910
sg10
VAmerican
p1911
sg12
VDirector of Equal Justice Initiative ,  Professor at New York University School of Law
p1912
sa(dp1913
g2
VScott Turow
p1914
sg4
Vhttps://upload.wikimedia.org/wikipedia/commons/d/d7/1scottturow.jpg
p1915
sg6
g17
sg8
V{{birth date and age|1949|4|12}}
p1916
sg10
g17
sg12
VNovelist, lawyer
p1917
sa(dp1918
g2
VLev Grossman
p1919
sg4
Vhttps://upload.wikimedia.org/wikipedia/commons/e/eb/Lev_grossman_2011.jpg
p1920
sg6
g17
sg8
V{{birth date and age|1969|06|26}}
p1921
sg10
g17
sg12
VNovelist, critic, journalist
p1922
sa(dp1923
g2
VDavid Brock
p1924
sg4
g17
sg6
g17
sg8
V{{birth date and age|1962|11|2}}
p1925
sg10
g17
sg12
VPolitical operative, author
p1926
sa(dp1927
g2
VJon Meacham
p1928
sg4
Vhttps://upload.wikimedia.org/wikipedia/commons/d/db/Jon_meacham_2014.jpg
p1929
sg6
V{{URL|www.jonmeacham.com}}
p1930
sg8
V{{birth date and age|mf=yes|1969|05|20}}
p1931
sg10
VAmerican
p1932
sg12
VWriter, editor
p1933
sa(dp1934
g2
VMarisha Pessl
p1935
sg4
g17
sg6
V{{URL|http://www.marishapessl.com}}
p1936
sg8
V{{birth date and age|1977|10|26}}
p1937
sg10
VAmerican
p1938
sg12
VNovelist
p1939
sa(dp1940
g2
VFrancis Fukuyama
p1941
sg4
Vhttps://upload.wikimedia.org/wikipedia/en/4/4a/Commons-logo.svg
p1942
sg6
V{{url|https://fukuyama.stanford.edu/}}
p1943
sg8
V{{Birth date and age|1952|10|27}}
p1944
sg10
g17
sg12
g17
sa(dp1945
g2
VCheryl Strayed
p1946
sg4
Vhttps://upload.wikimedia.org/wikipedia/en/4/4a/Commons-logo.svg
p1947
sg6
g17
sg8
V{{birth date and age|1968|9|17|}}
p1948
sg10
g17
sg12
VWriter
p1949
sa(dp1950
g2
VWilliam Kent Krueger
p1951
sg4
Vhttps://upload.wikimedia.org/wikipedia/en/4/4a/Commons-logo.svg
p1952
sg6
V{{URL|http://www.williamkentkrueger.com}}
p1953
sg8
V{{Birth date and age|1950|11|16}}
p1954
sg10
VAmerican
p1955
sg12
VNovelist, writer
p1956
sa(dp1957
g2
VJames Rollins
p1958
sg4
Vhttps://upload.wikimedia.org/wikipedia/en/9/99/Question_book-new.svg
p1959
sg6
V{{URL|http://www.jamesrollins.com}}, {{URL|http://www.jamesclemens.com}}
p1960
sg8
V{{Birth date and age|1961|8|20}}
p1961
sg10
VAmerican
p1962
sg12
VVeterinarian, journalist, novelist
p1963
sa(dp1964
g2
VJames Redfield
p1965
sg4
Vhttps://upload.wikimedia.org/wikipedia/commons/b/b4/Ambox_important.svg
p1966
sg6
g17
sg8
V{{Birth date and age|mf=yes|1950|03|19}}
p1967
sg10
VAmerican
p1968
sg12
VAuthor, lecturer, screenwriter and film producer
p1969
sa(dp1970
g2
VFaye Kellerman
p1971
sg4
g17
sg6
g85
sg8
V{{Birth date and age|1952|07|31}}
p1972
sg10
VUnited States
p1973
sg12
VAuthor
p1974
sa(dp1975
g2
VJeannette Walls
p1976
sg4
Vhttps://upload.wikimedia.org/wikipedia/en/f/f2/Edit-clear.svg
p1977
sg6
g17
sg8
V{{Birth date and age|1960|04|21}}
p1978
sg10
g17
sg12
VNovelist, columnist
p1979
sa(dp1980
g2
VClive Cussler
p1981
sg4
Vhttps://upload.wikimedia.org/wikipedia/commons/2/2d/11.5.11CliveCusslerByLuke_Graziani.jpg
p1982
sg6
V{{official website|http://www.clive-cussler-books.com}}
p1983
sg8
V{{Birth date and age|1931|7|15}}
p1984
sg10
VAmerican
p1985
sg12
VNovelist
p1986
sa(dp1987
g2
VSusan Lucci
p1988
sg4
Vhttps://upload.wikimedia.org/wikipedia/en/4/4a/Commons-logo.svg
p1989
sg6
V{{url|http://www.susanlucci.com/}}
p1990
sg8
V{{Birth date and age|1946|12|23|66|mf=y}}
p1991
sg10
VAmerican
p1992
sg12
VActress, television host, singer, entrepreneur, author
p1993
sa(dp1994
g2
VScott Simon
p1995
sg4
Vhttps://upload.wikimedia.org/wikipedia/commons/1/18/Scott_Simon_%284559696284%29_%28cropped_to_collar%29.jpg
p1996
sg6
V[http://www.npr.org/programs/wesat/ Program website], [http://www.scottsimonbooks.com Personal website]
p1997
sg8
V{{birth date and age|1952|03|16}}
p1998
sg10
g17
sg12
VPresenter
p1999
sa(dp2000
g2
VJustin Cronin
p2001
sg4
Vhttps://upload.wikimedia.org/wikipedia/commons/f/fa/Big_Book_blue.svg
p2002
sg6
g85
sg8
V{{Birth year and age|1962}}
p2003
sg10
g17
sg12
VNovelist, English professor
p2004
sa(dp2005
g2
VMike Greenberg
p2006
sg4
Vhttps://upload.wikimedia.org/wikipedia/commons/8/8a/USMC-091110-M-6539J-138.jpg
p2007
sg6
g17
sg8
V{{birth date and age|1967|8|6}}
p2008
sg10
g17
sg12
g17
sa(dp2009
g2
VPaul Stanley
p2010
sg4
Vhttps://upload.wikimedia.org/wikipedia/en/4/48/Folder_Hexagonal_Icon.svg
p2011
sg6
V{{URL|paulstanley.com/}}
p2012
sg8
V{{birth date and age|1952|1|20}}
p2013
sg10
g17
sg12
VMusician, singer-songwriter, record producer, painter, actor
p2014
sa(dp2015
g2
VSheila Bair
p2016
sg4
Vhttps://upload.wikimedia.org/wikipedia/commons/3/3c/Sheila_Bair_-_PopTech_2012.jpg
p2017
sg6
g17
sg8
V{{birth date and age|1954|4|3}}
p2018
sg10
g17
sg12
g17
sa(dp2019
g2
VVanessa Diffenbaugh
p2020
sg4
g17
sg6
S'{{URL|http://vanessadiffenbaugh.com}}'
p2021
sg8
S'{{Birth year and age|1978}}'
p2022
sg10
g17
sg12
g17
sa(dp2023
g2
VAndy Weir
p2024
sg4
Vhttps://upload.wikimedia.org/wikipedia/commons/b/b5/Andy_Weir_at_NASA_JSC-crop.png
p2025
sg6
V{{URL|http://www.galactanet.com/}}
p2026
sg8
V{{Birth date and age|1972|6|16}}
p2027
sg10
VAmerican
p2028
sg12
VNovelist, programmer
p2029
sa(dp2030
g2
VKris Jenner
p2031
sg4
Vhttps://upload.wikimedia.org/wikipedia/en/4/4a/Commons-logo.svg
p2032
sg6
g17
sg8
V{{Birth date and age|mf=yes|1955|11|5}}
p2033
sg10
g17
sg12
V{{flat list| * Television personality * television producer * talent manager * businessperson }}
p2034
sa(dp2035
g2
VAugusten Burroughs
p2036
sg4
Vhttps://upload.wikimedia.org/wikipedia/commons/7/76/Augusten_Burroughs_by_David_Shankbone.jpg
p2037
sg6
V{{URL|http://www.augusten.com/}}
p2038
sg8
V{{Birth date and age|1965|10|23|mf=y}}
p2039
sg10
VAmerican
p2040
sg12
VScreenwriter, memoirist, essayist.
p2041
sa(dp2042
g2
VGregg Olsen
p2043
sg4
g17
sg6
S'{{URL|http://www.greggolsen.com/}}'
p2044
sg8
S'{{Birth date and age|mf=yes|1959|3|5}}'
p2045
sg10
S'American'
p2046
sg12
S'Novelist'
p2047
sa(dp2048
g2
VJames Hayman
p2049
sg4
g17
sg6
g17
sg8
V
p2050
sg10
g17
sg12
VFilm/television director, producer and cinematographer
p2051
sa(dp2052
g2
VClive Barker
p2053
sg4
Vhttps://upload.wikimedia.org/wikipedia/en/4/4a/Commons-logo.svg
p2054
sg6
V{{url|www.clivebarker.info}}
p2055
sg8
V{{Birth date and age|1952|10|5|df=y}}
p2056
sg10
VBritish
p2057
sg12
VAuthor, film director, screenwriter, producer, actor, playwright, painter, illustrator and visual artist
p2058
sa(dp2059
g2
VCaitlin Doughty
p2060
sg4
Vhttps://upload.wikimedia.org/wikipedia/en/4/4a/Commons-logo.svg
p2061
sg6
V{{URL|www.orderofthegooddeath.com}}
p2062
sg8
V{{Birth date and age|1984|8|19|mf=y}}<ref name=RedditAMA/>
p2063
sg10
g17
sg12
Vblogger
p2064
sa(dp2065
g2
VSusan Orlean
p2066
sg4
Vhttps://upload.wikimedia.org/wikipedia/commons/1/17/Susan_orlean_2011.jpg
p2067
sg6
V{{URL|http://www.susanorlean.com/}}
p2068
sg8
V{{Birth date and age|1955|10|31|mf=y}}
p2069
sg10
VAmerican
p2070
sg12
VJournalist, Author
p2071
sa(dp2072
g2
VKathy Griffin
p2073
sg4
Vhttps://upload.wikimedia.org/wikipedia/en/4/4a/Commons-logo.svg
p2074
sg6
V{{URL|kathygriffin.net}}
p2075
sg8
V{{Birth date and age|1960|11|4|mf=yes}}
p2076
sg10
VAmerican
p2077
sg12
g17
sa(dp2078
g2
VKerrelyn Sparks
p2079
sg4
Vhttps://upload.wikimedia.org/wikipedia/commons/b/b4/Ambox_important.svg
p2080
sg6
V{{URL|kerrelynsparks.com}}
p2081
sg8
g85
sg10
VAmerican
p2082
sg12
VWriter
p2083
sa(dp2084
g2
VManning Marable
p2085
sg4
Vhttps://upload.wikimedia.org/wikipedia/commons/3/3e/Manning_Marable_by_David_Shankbone.jpg
p2086
sg6
g17
sg8
V{{Birth date|mf=yes|1950|5|13}}
p2087
sg10
g17
sg12
g17
sa(dp2088
g2
VPaul Krugman
p2089
sg4
Vhttps://upload.wikimedia.org/wikipedia/en/4/4a/Commons-logo.svg
p2090
sg6
g17
sg8
V{{birth date and age|1953|2|28}}
p2091
sg10
g17
sg12
g17
sa(dp2092
g2
VJeffrey Archer
p2093
sg4
Vhttps://upload.wikimedia.org/wikipedia/en/4/4a/Commons-logo.svg
p2094
sg6
V{{URL|http://www.jeffreyarcher.co.uk}}
p2095
sg8
V{{Birth date and age|1940|04|15|df=yes}}
p2096
sg10
VBritish
p2097
sg12
VPolitician, author
p2098
sa(dp2099
g2
VNeil MacGregor
p2100
sg4
Vhttps://upload.wikimedia.org/wikipedia/en/4/4a/Commons-logo.svg
p2101
sg6
g17
sg8
V{{birth date and age|df=yes|1946|6|16}}
p2102
sg10
g17
sg12
VArt historian and museum director
p2103
sa(dp2104
g2
VEric Schlosser
p2105
sg4
Vhttps://upload.wikimedia.org/wikipedia/commons/8/82/Ericschlosser.jpg
p2106
sg6
g17
sg8
V{{birth date and age|1959|8|17}}
p2107
sg10
VAmerican
p2108
sg12
VInvestigative writer
p2109
sa(dp2110
g2
VJeffrey Eugenides
p2111
sg4
Vhttps://upload.wikimedia.org/wikipedia/en/4/4a/Commons-logo.svg
p2112
sg6
g85
sg8
V{{Birth date and age|1960|3|8}}
p2113
sg10
VAmerican
p2114
sg12
VWriter<br/>Professor
p2115
sa(dp2116
g2
VCalvin Trillin
p2117
sg4
Vhttps://upload.wikimedia.org/wikipedia/commons/b/b4/Ambox_important.svg
p2118
sg6
g17
sg8
V{{Birth date and age|1935|12|5|mf=yes}}
p2119
sg10
VAmerican
p2120
sg12
g85
sa(dp2121
g2
VTessa Dare
p2122
sg4
Vhttps://upload.wikimedia.org/wikipedia/en/3/39/Tessa_Dare_Signature.png
p2123
sg6
V{{URL|http://tessadare.com/}}
p2124
sg8
V
p2125
sg10
VAmerican
p2126
sg12
VNovelist
p2127
sa(dp2128
g2
VKimberly Williams-Paisley
p2129
sg4
Vhttps://upload.wikimedia.org/wikipedia/en/4/4a/Commons-logo.svg
p2130
sg6
V{{url|http://kimberlywilliams-paisley.com/}}
p2131
sg8
V{{birth date and age|1971|9|14}}
p2132
sg10
g17
sg12
VActress
p2133
sa(dp2134
g2
VJane Velez-Mitchell
p2135
sg4
Vhttps://upload.wikimedia.org/wikipedia/en/4/4a/Commons-logo.svg
p2136
sg6
V{{URL|http://www.janevelezmitchell.com}}
p2137
sg8
V{{birth based on age as of date|53|2009|10|17}}
p2138
sg10
g17
sg12
VTelevision journalist, author
p2139
sa(dp2140
g2
VErnest Cline
p2141
sg4
Vhttps://upload.wikimedia.org/wikipedia/en/4/4a/Commons-logo.svg
p2142
sg6
V{{Official URL}}
p2143
sg8
V{{birth date and age|1972|3|29}}<ref name=birthr1/>
p2144
sg10
g17
sg12
VWriter
p2145
sa(dp2146
g2
VElle Kennedy
p2147
sg4
g17
sg6
V{{URL|http://www.ellekennedy.com}}
p2148
sg8
g17
sg10
VCanadian
p2149
sg12
VNovelist
p2150
sa(dp2151
g2
VKaren Marie Moning
p2152
sg4
Vhttps://upload.wikimedia.org/wikipedia/en/7/79/Karen_marie_moning.jpeg
p2153
sg6
V{{URL|http://www.KarenMoning.com}}
p2154
sg8
g85
sg10
VUnited States
p2155
sg12
VNovelist
p2156
sa(dp2157
g2
VDonna Leon
p2158
sg4
Vhttps://upload.wikimedia.org/wikipedia/en/4/4a/Commons-logo.svg
p2159
sg6
V{{URL|http://www.donnaleon.co.uk/}}
p2160
sg8
V{{Birth date and age|1942|9|29|mf=y}}
p2161
sg10
VAmerican
p2162
sg12
VNovelist
p2163
sa(dp2164
g2
VMiranda July
p2165
sg4
Vhttps://upload.wikimedia.org/wikipedia/en/4/4a/Commons-logo.svg
p2166
sg6
g17
sg8
V{{birth date and age|1974|2|15}}
p2167
sg10
g17
sg12
VActress, director, screenwriter, singer
p2168
sa(dp2169
g2
VGillian Flynn
p2170
sg4
Vhttps://upload.wikimedia.org/wikipedia/en/4/4a/Commons-logo.svg
p2171
sg6
V{{URL|http://gillian-flynn.com/}}
p2172
sg8
V{{birth date and age|1971|2|24|mf=y}}
p2173
sg10
VAmerican
p2174
sg12
VAuthor, screenwriter, comic book writer
p2175
sa(dp2176
g2
VAndrew Breitbart
p2177
sg4
Vhttps://upload.wikimedia.org/wikipedia/en/4/4a/Commons-logo.svg
p2178
sg6
g17
sg8
V{{Birth date|1969|02|01}}
p2179
sg10
VAmerican
p2180
sg12
VWriter, columnist, publisher
p2181
sa(dp2182
g2
VCourtney Milan
p2183
sg4
Vhttps://upload.wikimedia.org/wikipedia/commons/b/b4/Ambox_important.svg
p2184
sg6
V{{URL|http://www.courtneymilan.com/}}
p2185
sg8
g85
sg10
VAmerican
p2186
sg12
VWriter
p2187
sa(dp2188
g2
VColin Cowherd
p2189
sg4
Vhttps://upload.wikimedia.org/wikipedia/en/f/f2/Edit-clear.svg
p2190
sg6
g17
sg8
V{{birth date and age|1964|1|6}}
p2191
sg10
g17
sg12
g17
sa(dp2192
g2
VAlex Berenson
p2193
sg4
Vhttps://upload.wikimedia.org/wikipedia/en/6/69/P_vip.svg
p2194
sg6
S'{{URL|http://www.alexberenson.com/}}'
p2195
sg8
S'{{Birth date and age|1973|01|06}}'
p2196
sg10
S'American'
p2197
sg12
S'Author, Former Reporter for New York Times'
p2198
sa(dp2199
g2
VPeter Schweizer
p2200
sg4
Vhttps://upload.wikimedia.org/wikipedia/en/9/94/Clinton_Cash_cover.jpg
p2201
sg6
V{{URL|http://peterschweizer.com}}
p2202
sg8
V{{birth date and age|1964|11|24}}
p2203
sg10
g17
sg12
VAuthor, political advisor
p2204
sa(dp2205
g2
VDavid Wessel
p2206
sg4
g17
sg6
g17
sg8
V{{birth date and age|1954|02|21}}
p2207
sg10
g85
sg12
VEconomics journalist
p2208
sa(dp2209
g2
VIshmael Beah
p2210
sg4
Vhttps://upload.wikimedia.org/wikipedia/en/4/4a/Commons-logo.svg
p2211
sg6
g17
sg8
V{{birth date and age|df=yes|1980|11|23}}
p2212
sg10
VSierra Leonean
p2213
sg12
g17
sa(dp2214
g2
VAndrew Gross
p2215
sg4
g17
sg6
V{{URL|http://www.andrewgrossbooks.com}}
p2216
sg8
V1952
p2217
sg10
VAmerican
p2218
sg12
VAuthor
p2219
sa(dp2220
g2
VStephenie Meyer
p2221
sg4
Vhttps://upload.wikimedia.org/wikipedia/en/4/4a/Commons-logo.svg
p2222
sg6
V{{URL|stepheniemeyer.com}}
p2223
sg8
V{{Birth date and age|1973|12|24|mf=y}}
p2224
sg10
VAmerican
p2225
sg12
VNovelist, producer
p2226
sa(dp2227
g2
VTony Danza
p2228
sg4
Vhttps://upload.wikimedia.org/wikipedia/en/4/4a/Commons-logo.svg
p2229
sg6
g17
sg8
V{{birth-date and age|April 21, 1951}}
p2230
sg10
g17
sg12
Vboxer, teacher
p2231
sa(dp2232
g2
VJim Butcher
p2233
sg4
Vhttps://upload.wikimedia.org/wikipedia/en/4/4a/Commons-logo.svg
p2234
sg6
V{{URL|jim-butcher.com}}
p2235
sg8
V{{birth date and age|1971|10|26}}
p2236
sg10
VAmerican
p2237
sg12
VNovelist
p2238
sa(dp2239
g2
VAlice Munro
p2240
sg4
Vhttps://upload.wikimedia.org/wikipedia/en/4/4a/Commons-logo.svg
p2241
sg6
V
p2242
sg8
V{{Birth date and age|df=y|1931|7|10}}
p2243
sg10
VCanadian
p2244
sg12
VShort story writer
p2245
sa(dp2246
g2
VDavid Axelrod
p2247
sg4
Vhttps://upload.wikimedia.org/wikipedia/en/4/4a/Commons-logo.svg
p2248
sg6
g17
sg8
V{{birth date and age|1955|2|22}}
p2249
sg10
g17
sg12
g17
sa(dp2250
g2
VDan Simmons
p2251
sg4
g17
sg6
V{{URL|dansimmons.com}}
p2252
sg8
V{{birth date and age|1948|4|4}}
p2253
sg10
VAmerican
p2254
sg12
VNovelist
p2255
sa(dp2256
g2
VHenry Kissinger
p2257
sg4
Vhttps://upload.wikimedia.org/wikipedia/en/a/a4/Flag_of_the_United_States.svg
p2258
sg6
g17
sg8
V{{birth date and age|1923|5|27}}
p2259
sg10
g17
sg12
g17
sa(dp2260
g2
VMichael Cunningham
p2261
sg4
Vhttps://upload.wikimedia.org/wikipedia/en/4/4a/Commons-logo.svg
p2262
sg6
V{{URL|http://www.michaelcunninghamwriter.com/}}
p2263
sg8
V{{Birth date and age|1952|11|6}}
p2264
sg10
g17
sg12
Vauthor, screenwriter
p2265
sa(dp2266
g2
VSabrina Jeffries
p2267
sg4
Vhttps://upload.wikimedia.org/wikipedia/commons/7/76/SJphotoforwiki.jpg
p2268
sg6
S'{{URL|http://www.sabrinajeffries.com/}}'
p2269
sg8
g17
sg10
S'United States'
p2270
sg12
S'novelist'
p2271
sa(dp2272
g2
VSherrilyn Kenyon
p2273
sg4
Vhttps://upload.wikimedia.org/wikipedia/commons/b/b4/Ambox_important.svg
p2274
sg6
V{{URL|http://www.sherrilynkenyon.com/}}
p2275
sg8
V{{birth year and age|1965}}
p2276
sg10
VAmerican
p2277
sg12
VNovelist
p2278
sa(dp2279
g2
VCandice Millard
p2280
sg4
Vhttps://upload.wikimedia.org/wikipedia/en/9/99/Question_book-new.svg
p2281
sg6
g85
sg8
Vc. {{birth year and age|1968}}
p2282
sg10
VAmerican
p2283
sg12
VAuthor
p2284
sa(dp2285
g2
VAnnie Jacobsen
p2286
sg4
Vhttps://upload.wikimedia.org/wikipedia/en/2/24/Crystal_personal.svg
p2287
sg6
g17
sg8
V
p2288
sg10
VAmerican
p2289
sg12
VJournalist, non-fiction writer
p2290
sa(dp2291
g2
VJan Brewer
p2292
sg4
Vhttps://upload.wikimedia.org/wikipedia/en/4/4a/Commons-logo.svg
p2293
sg6
g17
sg8
V{{birth date and age|1944|9|26}}
p2294
sg10
g17
sg12
g17
sa(dp2295
g2
VCarl Hiaasen
p2296
sg4
Vhttps://upload.wikimedia.org/wikipedia/commons/b/b4/Ambox_important.svg
p2297
sg6
V{{URL|carlhiaasen.com}}
p2298
sg8
V{{birth date and age|1953|03|12}}
p2299
sg10
VAmerican
p2300
sg12
VNovelist, journalist
p2301
sa(dp2302
g2
VElvis Costello
p2303
sg4
Vhttps://upload.wikimedia.org/wikipedia/en/4/4a/Commons-logo.svg
p2304
sg6
V{{URL|www.elviscostello.com}}
p2305
sg8
V{{Birth date and age|1954|08|25|df=y}}
p2306
sg10
g17
sg12
V{{flatlist| *Musician *singer-songwriter *record producer }}
p2307
sa(dp2308
g2
VJudith Merkle Riley
p2309
sg4
Vhttps://upload.wikimedia.org/wikipedia/en/4/4f/Riley%2C_Judith_Merkle_-_A_Vision_Of_Light.jpg
p2310
sg6
g17
sg8
V{{Birth date|1942|1|14|mf=yes}}
p2311
sg10
VAmerican
p2312
sg12
VTeacher, novelist
p2313
sa(dp2314
g2
VDeborah Crombie
p2315
sg4
Vhttps://upload.wikimedia.org/wikipedia/commons/d/da/Deborah_crombie_2014.jpg
p2316
sg6
V{{URL|http://www.deborahcrombie.com}}
p2317
sg8
g85
sg10
g85
sg12
VAuthor
p2318
sa(dp2319
g2
VMichael Connelly
p2320
sg4
Vhttps://upload.wikimedia.org/wikipedia/en/4/4a/Commons-logo.svg
p2321
sg6
V{{URL|http://michaelconnelly.com/}}
p2322
sg8
V{{Birth date and age|mf=yes|1956|7|21}}
p2323
sg10
VAmerican
p2324
sg12
VNovelist
p2325
sa(dp2326
g2
VSusan Elizabeth Phillips
p2327
sg4
Vhttps://upload.wikimedia.org/wikipedia/commons/e/ef/Susan_Elizabeth_Phillip_contemporary_romance_author.jpg
p2328
sg6
S'{{URL|SusanEPhillips.com}}'
p2329
sg8
S'{{Birth date and age|1948|12|11}}'
p2330
sg10
S'United States'
p2331
sg12
S'Novelist'
p2332
sa(dp2333
g2
VJonah Goldberg
p2334
sg4
Vhttps://upload.wikimedia.org/wikipedia/en/f/f3/PeterBeinartAndJonahGoldberg.jpg
p2335
sg6
g17
sg8
V{{birth-date and age|March 21, 1969}}
p2336
sg10
g17
sg12
VJournalist, Senior Editor, author
p2337
sa(dp2338
g2
VDavid Foster Wallace
p2339
sg4
Vhttps://upload.wikimedia.org/wikipedia/commons/e/ea/David_Foster_Wallace.jpg
p2340
sg6
g17
sg8
V{{Birth date|1962|2|21}}
p2341
sg10
g17
sg12
VNovelist, short story writer, essayist, college professor
p2342
sa(dp2343
g2
VJoyce Maynard
p2344
sg4
Vhttps://upload.wikimedia.org/wikipedia/en/9/99/Question_book-new.svg
p2345
sg6
V{{URL|http://joycemaynard.com}}
p2346
sg8
V{{Birth date and age|1953|11|5}}
p2347
sg10
VAmerican
p2348
sg12
VNovelist, memoirist, journalist
p2349
sa(dp2350
g2
VElmore Leonard
p2351
sg4
Vhttps://upload.wikimedia.org/wikipedia/commons/1/1a/US_flag_48_stars.svg
p2352
sg6
g17
sg8
V{{Birth date|1925|10|11}}
p2353
sg10
g17
sg12
VWriter
p2354
sa(dp2355
g2
VElena Ferrante
p2356
sg4
g17
sg6
g85
sg8
g85
sg10
g17
sg12
VNovelist
p2357
sa(dp2358
g2
VJill Lepore
p2359
sg4
g17
sg6
g85
sg8
V{{birth date and age|1966|8|27}}
p2360
sg10
VAmerican
p2361
sg12
g17
sa(dp2362
g2
VFredrik Backman
p2363
sg4
g17
sg6
Vhttp://www.fredrikbackman.com
p2364
sg8
V{{birth date and age|df=yes|1981|06|02}}
p2365
sg10
g17
sg12
VWriter
p2366
sa(dp2367
g2
VTerry Brooks
p2368
sg4
Vhttps://upload.wikimedia.org/wikipedia/commons/5/56/Terry_Brooks.jpg
p2369
sg6
V{{Official URL}}
p2370
sg8
V{{birth date and age|1944|1|8}}
p2371
sg10
VAmerican
p2372
sg12
Vattorney
p2373
sa(dp2374
g2
VPearl Jam
p2375
sg4
Vhttps://upload.wikimedia.org/wikipedia/en/e/e7/Cscr-featured.svg
p2376
sg6
V{{URL|www.pearljam.com}}
p2377
sg8
g17
sg10
g17
sg12
g17
sa(dp2378
g2
VDaniel James Brown
p2379
sg4
Vhttps://upload.wikimedia.org/wikipedia/commons/b/b4/Ambox_important.svg
p2380
sg6
V{{URL|www.danieljamesbrown.com}}
p2381
sg8
V{{birth year and age|1951}}
p2382
sg10
VAmerican
p2383
sg12
VAuthor
p2384
sa(dp2385
g2
VTroy Denning
p2386
sg4
Vhttps://upload.wikimedia.org/wikipedia/commons/a/a6/Troy_denning.jpg
p2387
sg6
g17
sg8
V{{birth year and age|1958}}
p2388
sg10
g17
sg12
VWriter, game designer
p2389
sa(dp2390
g2
VGraeme Simsion
p2391
sg4
Vhttps://upload.wikimedia.org/wikipedia/commons/e/ea/Graeme_Simsion.jpg
p2392
sg6
V{{URL|http://graemesimsion.com/}}
p2393
sg8
V
p2394
sg10
VAustralian, NZ, UK
p2395
sg12
VAuthor, consultancy manager, data modeller
p2396
sa(dp2397
g2
VGarth Risk Hallberg
p2398
sg4
Vhttps://upload.wikimedia.org/wikipedia/commons/f/fa/Big_Book_blue.svg
p2399
sg6
g85
sg8
VNovember 1978
p2400
sg10
VAmerican
p2401
sg12
VAuthor, writer
p2402
sa(dp2403
g2
VAlan Dean Foster
p2404
sg4
Vhttps://upload.wikimedia.org/wikipedia/en/4/4a/Commons-logo.svg
p2405
sg6
V{{URL|alandeanfoster.com}}
p2406
sg8
V{{Birth date and age|1946|11|18}}
p2407
sg10
VAmerican
p2408
sg12
VFiction writer
p2409
sa(dp2410
g2
VChristopher McDougall
p2411
sg4
g17
sg6
g17
sg8
S'1962'
p2412
sg10
g17
sg12
S'Non-fiction--Author'
p2413
sa(dp2414
g2
VMichael Prescott
p2415
sg4
Vhttps://upload.wikimedia.org/wikipedia/commons/b/b4/Ambox_important.svg
p2416
sg6
V{{URL|http://www.michaelprescott.net/}}
p2417
sg8
V1960
p2418
sg10
VAmerican
p2419
sg12
VNovelist, 1986\u2013present
p2420
sa(dp2421
g2
VSebastian Junger
p2422
sg4
Vhttps://upload.wikimedia.org/wikipedia/commons/b/b2/TimHetheringtonSebastianJungerFeb2011.jpg
p2423
sg6
V{{URL | sebastianjunger.com | SebastianJunger.com }}
p2424
sg8
V{{Birth date and age|1962|1|17}}
p2425
sg10
g17
sg12
VAuthor, journalist and documentary filmmaker
p2426
sa(dp2427
g2
VChuck Palahniuk
p2428
sg4
Vhttps://upload.wikimedia.org/wikipedia/en/4/4a/Commons-logo.svg
p2429
sg6
V{{URL|http://www.chuckpalahniuk.net}}
p2430
sg8
V{{birth date and age|mf=yes|1962|2|21}}
p2431
sg10
g17
sg12
VNovelist, essayist
p2432
sa(dp2433
g2
VJane Mayer
p2434
sg4
Vhttps://upload.wikimedia.org/wikipedia/commons/a/a9/Jane_mayer_2008.jpg
p2435
sg6
g17
sg8
V1955
p2436
sg10
g17
sg12
VJournalist and author
p2437
sa(dp2438
g2
VKaren Russell
p2439
sg4
Vhttps://upload.wikimedia.org/wikipedia/en/4/4a/Commons-logo.svg
p2440
sg6
g17
sg8
V{{Birth date and age|1981|7|10|mf=y}}
p2441
sg10
g17
sg12
VWriter
p2442
sa(dp2443
g2
VGeorge Packer
p2444
sg4
Vhttps://upload.wikimedia.org/wikipedia/commons/0/09/George_packer_2013.jpg
p2445
sg6
V
p2446
sg8
V{{Birth date and age|1960|08|13}}
p2447
sg10
VAmerican
p2448
sg12
VJournalist, novelist, and playwright
p2449
sa(dp2450
g2
VNick Offerman
p2451
sg4
Vhttps://upload.wikimedia.org/wikipedia/en/4/4a/Commons-logo.svg
p2452
sg6
V{{URL|offermanwoodshop.com/}}
p2453
sg8
V{{birth date and age|1970|6|26}}
p2454
sg10
g17
sg12
VActor, comedian, writer, musician, carpenter
p2455
sa(dp2456
g2
VFrancine Rivers
p2457
sg4
g17
sg6
V{{URL|http://www.francinerivers.com/}}
p2458
sg8
V1947
p2459
sg10
VAmerican
p2460
sg12
Vnovelist
p2461
sa(dp2462
g2
VBarbara Taylor Bradford
p2463
sg4
g17
sg6
g17
sg8
V10 May 1933
p2464
sg10
g17
sg12
VNovelist
p2465
sa(dp2466
g2
VWil Haygood
p2467
sg4
g17
sg6
g17
sg8
S'{{Birth year and age|1954}}<ref name="Cayton2002">{{cite book|last=Cayton|first=Andrew Robert Lee|title=Ohio: The History of a People|url=https://books.google.com/books?id=tC9d4JVvefIC&pg=PA346|year=2002|publisher=Ohio State University Press|isbn=9780814208991|page=346}}</ref>'
p2468
sg10
g17
sg12
g17
sa(dp2469
g2
VEdward Conard
p2470
sg4
Vhttps://upload.wikimedia.org/wikipedia/commons/2/2f/Edward_Conard.jpg
p2471
sg6
V{{URL|http://www.edwardconard.com}}
p2472
sg8
V
p2473
sg10
g85
sg12
g85
sa(dp2474
g2
VDennis Lehane
p2475
sg4
Vhttps://upload.wikimedia.org/wikipedia/en/4/4a/Commons-logo.svg
p2476
sg6
V{{URL|http://www.dennislehane.com}}
p2477
sg8
V{{birth date and age|1965|8|4}}
p2478
sg10
VAmerican
p2479
sg12
VNovelist, screenwriter
p2480
sa(dp2481
g2
VGregg Allman
p2482
sg4
Vhttps://upload.wikimedia.org/wikipedia/en/4/4a/Commons-logo.svg
p2483
sg6
g17
sg8
V{{birth date and age|mf=yes|1947|12|08}}
p2484
sg10
g17
sg12
V{{flatlist| * Singer-songwriter * musician }}
p2485
sa(dp2486
g2
VNeil Gaiman
p2487
sg4
Vhttps://upload.wikimedia.org/wikipedia/en/4/4a/Commons-logo.svg
p2488
sg6
V{{url|NeilGaiman.com}}
p2489
sg8
V{{birth date and age|df=yes|1960|11|10}}
p2490
sg10
VBritish
p2491
sg12
VAuthor, comic book creator, screenwriter, voice actor
p2492
sa(dp2493
g2
VGabriel Sherman
p2494
sg4
g17
sg6
g17
sg8
g85
sg10
g17
sg12
VAuthor, writer
p2495
sa(dp2496
g2
VMark Leibovich
p2497
sg4
Vhttps://upload.wikimedia.org/wikipedia/en/4/4a/Commons-logo.svg
p2498
sg6
V
p2499
sg8
V{{Birth date and age|1965|05|09}}
p2500
sg10
VAmerican
p2501
sg12
VJournalist
p2502
sa(dp2503
g2
VCandace Bushnell
p2504
sg4
Vhttps://upload.wikimedia.org/wikipedia/en/4/4a/Commons-logo.svg
p2505
sg6
V{{URL|candacebushnell.com}}
p2506
sg8
V{{Birth date and age|1958|12|1|mf=y}}
p2507
sg10
g17
sg12
VNovelist
p2508
sa(dp2509
g2
VTimothy Egan
p2510
sg4
g17
sg6
V{{URL|http://timothyeganbooks.com}}
p2511
sg8
V{{Birth date and age|1954|11|08}}
p2512
sg10
g85
sg12
VCorrespondent (''The New York Times'')
p2513
sa(dp2514
g2
VCynthia Lennon
p2515
sg4
Vhttps://upload.wikimedia.org/wikipedia/en/4/4a/Commons-logo.svg
p2516
sg6
g17
sg8
V{{birth date|1939|9|10|df=y}}
p2517
sg10
g17
sg12
g85
sa(dp2518
g2
VDan Fagin
p2519
sg4
Vhttps://upload.wikimedia.org/wikipedia/commons/8/8e/Dan_Fagin_2015.jpg
p2520
sg6
V{{URL|http://danfagin.com}}
p2521
sg8
V{{Birth date|1963|2|1|mf=y}}
p2522
sg10
VUnited States
p2523
sg12
VEnvironmental journalist, New York University journalism professor
p2524
sa(dp2525
g2
VSam Harris
p2526
sg4
Vhttps://upload.wikimedia.org/wikipedia/en/4/4a/Commons-logo.svg
p2527
sg6
V{{URL|samharris.org|SamHarris.org}}
p2528
sg8
V{{Birth date and age|1967|4|9}}
p2529
sg10
VAmerican
p2530
sg12
VAuthor, neuroscientist, non-profit executive, philosopher
p2531
sa(dp2532
g2
VCondoleezza Rice
p2533
sg4
Vhttps://upload.wikimedia.org/wikipedia/commons/0/06/Wiktionary-logo-v2.svg
p2534
sg6
g17
sg8
V{{birth date and age|1954|11|14}}
p2535
sg10
g17
sg12
g17
sa(dp2536
g2
VCandice Bergen
p2537
sg4
Vhttps://upload.wikimedia.org/wikipedia/en/4/4a/Commons-logo.svg
p2538
sg6
V
p2539
sg8
V{{birth date and age|1946|5|9}}
p2540
sg10
g85
sg12
VActress, fashion model
p2541
sa(dp2542
g2
VShania Twain
p2543
sg4
Vhttps://upload.wikimedia.org/wikipedia/en/4/4a/Commons-logo.svg
p2544
sg6
g17
sg8
V{{Birth date and age|mf=yes|1965|8|28}}
p2545
sg10
VCanadian
p2546
sg12
V{{flatlist| * Singer * songwriter }}
p2547
sa(dp2548
g2
VTerry Pratchett
p2549
sg4
Vhttps://upload.wikimedia.org/wikipedia/en/4/4a/Commons-logo.svg
p2550
sg6
V{{URL|http://www.terrypratchett.co.uk}}
p2551
sg8
V{{Birth date|1948|04|28|df=y}}
p2552
sg10
g17
sg12
VNovelist
p2553
sa(dp2554
g2
VIan Caldwell
p2555
sg4
g17
sg6
V[https://www.facebook.com/IanCaldwellFanPage Facebook Page]
p2556
sg8
V{{Birth date and age|1976|03|18}} 
p2557
sg10
g85
sg12
VNovelist
p2558
sa(dp2559
g2
VMatthew Berry
p2560
sg4
g17
sg6
g17
sg8
V{{Birth date and age|1969|12|29}}
p2561
sg10
VAmerican
p2562
sg12
VFantasy Sports analyst, writer, author
p2563
sa(dp2564
g2
VCarly Simon
p2565
sg4
Vhttps://upload.wikimedia.org/wikipedia/en/4/4a/Commons-logo.svg
p2566
sg6
V{{URL|http://www.carlysimon.com}}
p2567
sg8
V{{birth date and age|1945|6|25}}
p2568
sg10
g17
sg12
VSinger-songwriter, musician, actress, writer
p2569
sa(dp2570
g2
VFrancine Prose
p2571
sg4
Vhttps://upload.wikimedia.org/wikipedia/en/4/4a/Commons-logo.svg
p2572
sg6
g17
sg8
V{{birth date and age|1947|4|1}}
p2573
sg10
VAmerican
p2574
sg12
VWriter
p2575
sa(dp2576
g2
VLisa Jewell
p2577
sg4
g17
sg6
g17
sg8
S'{{bda|1968|7|19}}'
p2578
sg10
g17
sg12
g17
sa(dp2579
g2
VPhilippa Gregory
p2580
sg4
Vhttps://upload.wikimedia.org/wikipedia/en/4/4a/Commons-logo.svg
p2581
sg6
V{{URL|http://www.philippagregory.com}}
p2582
sg8
V{{birth date and age|1954|1|9|df=y}}
p2583
sg10
VEnglish
p2584
sg12
VNovelist
p2585
sa(dp2586
g2
VLora Leigh
p2587
sg4
Vhttps://upload.wikimedia.org/wikipedia/commons/b/b4/Ambox_important.svg
p2588
sg6
S'{{URL|http://www.loraleigh.com/}}'
p2589
sg8
S'{{birth date and age|1965|3|6|df=yes}}'
p2590
sg10
S'American'
p2591
sg12
S'Author'
p2592
sa(dp2593
g2
VBrian Greene
p2594
sg4
Vhttps://upload.wikimedia.org/wikipedia/en/4/4a/Commons-logo.svg
p2595
sg6
g17
sg8
V{{Birth date and age|mf=yes|1963|2|9}}
p2596
sg10
VAmerican
p2597
sg12
g17
sa(dp2598
g2
VAlec Ross
p2599
sg4
Vhttps://upload.wikimedia.org/wikipedia/commons/9/9c/AlecRoss.jpg
p2600
sg6
g17
sg8
S'{{Birth date|df=yes|1879|9|15}}'
p2601
sg10
S'{{SCO}}'
p2602
sg12
g17
sa(dp2603
g2
VRobert Crais
p2604
sg4
g17
sg6
V{{URL|http://www.robertcrais.com}}
p2605
sg8
V{{Birth date and age|1953|6|20}}
p2606
sg10
g17
sg12
VNovelist, Screenwriter
p2607
sa(dp2608
g2
VAnn Coulter
p2609
sg4
Vhttps://upload.wikimedia.org/wikipedia/en/4/4a/Commons-logo.svg
p2610
sg6
V{{URL|anncoulter.com}}
p2611
sg8
V{{birth date and age|1961|12|8}}
p2612
sg10
VAmerican
p2613
sg12
VAuthor, columnist, political commentator
p2614
sa(dp2615
g2
VJohn Irving
p2616
sg4
Vhttps://upload.wikimedia.org/wikipedia/commons/f/fa/Wikiquote-logo.svg
p2617
sg6
V{{URL|http://john-irving.com/}}
p2618
sg8
V{{birth date and age|1942|3|2|mf=y}}
p2619
sg10
g17
sg12
V{{hlist |Novelist |Screenwriter}}
p2620
sa(dp2621
g2
VEric Greitens
p2622
sg4
Vhttps://upload.wikimedia.org/wikipedia/commons/8/8b/Us_jointservachiev_rib.svg
p2623
sg6
V{{official website}}
p2624
sg8
V{{birth date and age|1974|4|10}}
p2625
sg10
g17
sg12
g17
sa(dp2626
g2
VKresley Cole
p2627
sg4
Vhttps://upload.wikimedia.org/wikipedia/commons/b/b4/Ambox_important.svg
p2628
sg6
V{{URL|http://www.KresleyCole.com}}
p2629
sg8
g85
sg10
VAmerican
p2630
sg12
Vnovelist
p2631
sa(dp2632
g2
VJake Tapper
p2633
sg4
Vhttps://upload.wikimedia.org/wikipedia/en/6/69/P_vip.svg
p2634
sg6
V
p2635
sg8
V{{Birth date and age|1969|03|12}}
p2636
sg10
VAmerican
p2637
sg12
g85
sa(dp2638
g2
VBetty DeGeneres
p2639
sg4
Vhttps://upload.wikimedia.org/wikipedia/commons/b/b4/Ambox_important.svg
p2640
sg6
g17
sg8
V{{Birth date and age|mf=yes|1930|5|20}}
p2641
sg10
g85
sg12
g85
sa(dp2642
g2
VJennifer Crusie
p2643
sg4
g17
sg6
V{{URL|http://www.jennycrusie.com/}}
p2644
sg8
V{{birth year and age|1949}}
p2645
sg10
VAmerican
p2646
sg12
Vnovelist, nonfiction
p2647
sa(dp2648
g2
VAnthony Horowitz
p2649
sg4
Vhttps://upload.wikimedia.org/wikipedia/commons/6/66/Rugby_School_850.jpg
p2650
sg6
V{{URL|anthonyhorowitz.com}}
p2651
sg8
V{{birth date and age|1955|4|5|df=y}}
p2652
sg10
VBritish
p2653
sg12
VNovelist, screenwriter, children's author
p2654
sa(dp2655
g2
VSteve Hamilton
p2656
sg4
g17
sg6
g17
sg8
V{{Birth date|1934|11|30|mf=y}}
p2657
sg10
g17
sg12
g17
sa(dp2658
g2
VDick Cheney
p2659
sg4
Vhttps://upload.wikimedia.org/wikipedia/en/a/a4/Flag_of_the_United_States.svg
p2660
sg6
g17
sg8
V{{birth date and age|mf=yes|1941|1|30}}
p2661
sg10
g17
sg12
g17
sa(dp2662
g2
VBrad Thor
p2663
sg4
Vhttps://upload.wikimedia.org/wikipedia/en/f/f2/Edit-clear.svg
p2664
sg6
V{{URL|http://www.bradthor.com/}}
p2665
sg8
VAugust 21, 1969 (age 46)
p2666
sg10
VAmerican
p2667
sg12
VNovelist
p2668
sa(dp2669
g2
VAri Shavit
p2670
sg4
Vhttps://upload.wikimedia.org/wikipedia/commons/d/d4/Flag_of_Israel.svg
p2671
sg6
g17
sg8
V{{Birth year and age|1957}}
p2672
sg10
VIsraeli
p2673
sg12
VWriter, Journalist
p2674
sa(dp2675
g2
VMeredith Baxter
p2676
sg4
Vhttps://upload.wikimedia.org/wikipedia/en/4/4a/Commons-logo.svg
p2677
sg6
g17
sg8
V{{birth date and age|1947|6|21}}
p2678
sg10
g17
sg12
VActress, producer
p2679
sa(dp2680
g2
VMichael Robotham
p2681
sg4
Vhttps://upload.wikimedia.org/wikipedia/commons/4/4c/Michael_Robotham_2014.jpg
p2682
sg6
g17
sg8
S'{{Birth date|1960|11|09|df=yes}}'
p2683
sg10
S'Australian'
p2684
sg12
g17
sa(dp2685
g2
VRod Stewart
p2686
sg4
Vhttps://upload.wikimedia.org/wikipedia/en/4/4a/Commons-logo.svg
p2687
sg6
g17
sg8
V{{Birth date and age|df=yes|1945|01|10}}
p2688
sg10
g17
sg12
VSinger-songwriter, musician, record producer
p2689
sa(dp2690
g2
VJasper Fforde
p2691
sg4
Vhttps://upload.wikimedia.org/wikipedia/commons/3/3d/Jasper_fforde_2012.jpg
p2692
sg6
S'{{URL|jasperfforde.com}}'
p2693
sg8
S'{{Birth date and age|1961|1|11|df=yes}}'
p2694
sg10
g17
sg12
S'Novelist'
p2695
sa(dp2696
g2
VJane Pauley
p2697
sg4
Vhttps://upload.wikimedia.org/wikipedia/commons/7/7c/Jane_Pauley_2012_Shankbone.JPG
p2698
sg6
g17
sg8
V{{Birth date and age|1950|10|31}}
p2699
sg10
VAmerican
p2700
sg12
VJournalist, News reporter, News anchor, Television host
p2701
sa(dp2702
g2
VAllison Pataki
p2703
sg4
Vhttps://upload.wikimedia.org/wikipedia/en/6/6c/Wiki_letter_w.svg
p2704
sg6
V{{URL|http://allisonpataki.com}}
p2705
sg8
V{{birth year and age|1984}}
p2706
sg10
VAmerican
p2707
sg12
VWriter
p2708
sa(dp2709
g2
VMichael Ponsor
p2710
sg4
g17
sg6
g17
sg8
V{{birth year and age|1946}}
p2711
sg10
g17
sg12
g17
sa(dp2712
g2
VTijan
p2713
sg4
g17
sg6
g85
sg8
g17
sg10
g17
sg12
g17
sa(dp2714
g2
VSylvia Day
p2715
sg4
Vhttps://upload.wikimedia.org/wikipedia/en/3/3a/Sylvia_day_ca_dreaming%27_writers_conference_march_2015.jpg
p2716
sg6
V{{URL|http://www.sylviaday.com}}
p2717
sg8
V{{birth date and age|1973|3|11}}
p2718
sg10
VJapanese American
p2719
sg12
Vwriter
p2720
sa(dp2721
g2
VRegis Philbin
p2722
sg4
Vhttps://upload.wikimedia.org/wikipedia/en/4/4a/Commons-logo.svg
p2723
sg6
g17
sg8
V{{birth date and age|1931|8|25}}
p2724
sg10
g17
sg12
V{{hlist|TV presenter|Talk show host|Game show host|Actor|Singer|Author }}
p2725
sa(dp2726
g2
VTom Wolfe
p2727
sg4
Vhttps://upload.wikimedia.org/wikipedia/commons/f/f7/Original_7_Astronauts_in_Spacesuits_-_GPN-2000-001293.jpg
p2728
sg6
g17
sg8
V{{birth date and age|1931|3|2|mf=y}}
p2729
sg10
VAmerican
p2730
sg12
VJournalist, author
p2731
sa(dp2732
g2
VSarah Colonna
p2733
sg4
Vhttps://upload.wikimedia.org/wikipedia/commons/b/b4/Ambox_important.svg
p2734
sg6
g85
sg8
V{{birth date and age|1974|12|29|mf=y}}
p2735
sg10
VAmerican
p2736
sg12
g17
sa(dp2737
g2
VKarin Slaughter
p2738
sg4
Vhttps://upload.wikimedia.org/wikipedia/commons/2/2d/Karin_Slaughter_2012.jpg
p2739
sg6
g17
sg8
V{{Birth date and age|mf=yes|1971|1|6}}
p2740
sg10
VAmerican
p2741
sg12
VNovelist, writer, author
p2742
sa(dp2743
g2
VJill Alexander Essbaum
p2744
sg4
Vhttps://upload.wikimedia.org/wikipedia/commons/4/44/Jill_Alexander_Essbaum_2015.jpg
p2745
sg6
g85
sg8
V1971
p2746
sg10
VAmerican
p2747
sg12
VPoet, novelist
p2748
sa(dp2749
g2
VJohn Jackson Miller
p2750
sg4
g17
sg6
Vhttp://www.farawaypress.com
p2751
sg8
V{{Birth date and age|1968|1|12}}
p2752
sg10
VAmerican
p2753
sg12
g17
sa(dp2754
g2
VCokie Roberts
p2755
sg4
Vhttps://upload.wikimedia.org/wikipedia/commons/b/b4/Ambox_important.svg
p2756
sg6
g17
sg8
V{{birth date and age|mf=yes|1943|12|27}}
p2757
sg10
VUnited States
p2758
sg12
VJournalist, Author
p2759
sa(dp2760
g2
VJimmy Buffett
p2761
sg4
Vhttps://upload.wikimedia.org/wikipedia/en/4/4a/Commons-logo.svg
p2762
sg6
V{{URL|margaritaville.com}}
p2763
sg8
V{{birth date and age|mf=yes|1946|12|25}}
p2764
sg10
g17
sg12
V{{flatlist| *Singer-songwriter *author *businessman *film producer *actor *author}}
p2765
sa(dp2766
g2
VElizabeth Kolbert
p2767
sg4
g17
sg6
g17
sg8
V{{Birth year and age|1961}} 
p2768
sg10
VAmerican
p2769
sg12
VJournalist and author
p2770
sa(dp2771
g2
VIan Rankin
p2772
sg4
Vhttps://upload.wikimedia.org/wikipedia/en/4/4a/Commons-logo.svg
p2773
sg6
V{{URL|http://www.ianrankin.net}}
p2774
sg8
V{{Birth date and age|1960|04|28|df=y}}
p2775
sg10
VScottish
p2776
sg12
VNovelist
p2777
sa(dp2778
g2
VAllegra Goodman
p2779
sg4
Vhttps://upload.wikimedia.org/wikipedia/commons/6/64/Allegra_Goodman.JPG
p2780
sg6
S'{{URL|http://allegragoodman.com/}}'
p2781
sg8
S'{{birth year and age|1967}}'
p2782
sg10
S'American'
p2783
sg12
S'Novelist'
p2784
sa(dp2785
g2
VMartin Sixsmith
p2786
sg4
g17
sg6
g17
sg8
V24 September 1954 (age 61)
p2787
sg10
VBritish
p2788
sg12
VWriter
p2789
sa(dp2790
g2
VNora Ephron
p2791
sg4
Vhttps://upload.wikimedia.org/wikipedia/commons/5/5a/Nora_Ephron.jpg
p2792
sg6
g17
sg8
V{{birth date|mf=yes|1941|05|19}}
p2793
sg10
VAmerican
p2794
sg12
VScreenwriter, producer, director, journalist, playwright, author
p2795
sa(dp2796
g2
VMaria Goodavage
p2797
sg4
Vhttps://upload.wikimedia.org/wikipedia/commons/7/77/Maria_Goodavage%2C_author.png
p2798
sg6
V{{URL|http://mariagoodavage.com/}}
p2799
sg8
V
p2800
sg10
g85
sg12
Vjournalist, author, editor
p2801
sa(dp2802
g2
VJess Walter
p2803
sg4
Vhttps://upload.wikimedia.org/wikipedia/commons/7/71/Jess_Walter.JPG
p2804
sg6
g17
sg8
S'{{birth date and age|mf=yes|1965|7|20}}'
p2805
sg10
g17
sg12
S'Author'
p2806
sa(dp2807
g2
VDiane Keaton
p2808
sg4
Vhttps://upload.wikimedia.org/wikipedia/en/4/4a/Commons-logo.svg
p2809
sg6
g17
sg8
V{{birth date and age|1946|1|5}}
p2810
sg10
g17
sg12
VActress, director, producer, writer
p2811
sa(dp2812
g2
VWally Lamb
p2813
sg4
Vhttps://upload.wikimedia.org/wikipedia/commons/b/b1/WallyLamb06.JPG
p2814
sg6
V{{URL|http://www.wallylamb.net}}
p2815
sg8
V{{birth date and age|1950|10|17|mf=y}}
p2816
sg10
VAmerican
p2817
sg12
VNovelist
p2818
sa(dp2819
g2
VRichard Castle
p2820
sg4
Vhttps://upload.wikimedia.org/wikipedia/en/f/f2/Edit-clear.svg
p2821
sg6
g17
sg8
g17
sg10
VAmerican
p2822
sg12
VBest-selling author<ref name="nytimes.com" />, Amateur detective/police consultant, Private investigator
p2823
sa(dp2824
g2
VBilly Graham
p2825
sg4
Vhttps://upload.wikimedia.org/wikipedia/en/4/4a/Commons-logo.svg
p2826
sg6
V{{URL|billygraham.org/}}
p2827
sg8
V{{birth date and age|1918|11|7}}
p2828
sg10
VAmerican
p2829
sg12
VEvangelist
p2830
sa(dp2831
g2
VSarah Addison Allen
p2832
sg4
g17
sg6
V{{URL|www.sarahaddisonallen.com/}}
p2833
sg8
V
p2834
sg10
g85
sg12
VAuthor
p2835
sa(dp2836
g2
VSolomon Northup
p2837
sg4
Vhttps://upload.wikimedia.org/wikipedia/en/4/4a/Commons-logo.svg
p2838
sg6
g17
sg8
VJuly 10, 1807 or 1808
p2839
sg10
g85
sg12
g85
sa(dp2840
g2
VOlen Steinhauer
p2841
sg4
Vhttps://upload.wikimedia.org/wikipedia/en/4/4a/Commons-logo.svg
p2842
sg6
V{{URL|http://www.olensteinhauer.com/}}
p2843
sg8
V{{birth date and age|mf=yes|1970|06|21}}
p2844
sg10
g17
sg12
VNovelist
p2845
sa(dp2846
g2
VGreg Iles
p2847
sg4
g17
sg6
g17
sg8
V1960
p2848
sg10
VAmerican
p2849
sg12
VWriter
p2850
sa(dp2851
g2
VColum McCann
p2852
sg4
Vhttps://upload.wikimedia.org/wikipedia/en/4/4a/Commons-logo.svg
p2853
sg6
g17
sg8
V{{Birth date and age|1965|2|28|df=y}}
p2854
sg10
VIrish, American
p2855
sg12
VWriter
p2856
sa(dp2857
g2
VClinton Romesha
p2858
sg4
Vhttps://upload.wikimedia.org/wikipedia/en/a/a4/Flag_of_the_United_States.svg
p2859
sg6
g17
sg8
V{{birth date and age|1981|8|17}}
p2860
sg10
g17
sg12
g17
sa(dp2861
g2
VDouglas Brinkley
p2862
sg4
Vhttps://upload.wikimedia.org/wikipedia/en/4/4a/Commons-logo.svg
p2863
sg6
g85
sg8
V{{Birth date and age|1960|12|14}}
p2864
sg10
VAmerican
p2865
sg12
VHistorian
p2866
sa(dp2867
g2
VJulia Quinn
p2868
sg4
g17
sg6
V{{URL|http://www.juliaquinn.com}}
p2869
sg8
V{{birth year and age|1970}}
p2870
sg10
VAmerican
p2871
sg12
VNovelist
p2872
sa(dp2873
g2
VMarilynne Robinson
p2874
sg4
Vhttps://upload.wikimedia.org/wikipedia/en/4/4a/Commons-logo.svg
p2875
sg6
g85
sg8
V{{birth date and age|1943|11|26}}
p2876
sg10
VAmerican
p2877
sg12
VNovelist, essayist
p2878
sa(dp2879
g2
VJoe Posnanski
p2880
sg4
Vhttps://upload.wikimedia.org/wikipedia/commons/1/1e/Joe_Posnanski_2007_CROP.jpg
p2881
sg6
g17
sg8
V{{birth date and age|1967|01|08}}
p2882
sg10
g17
sg12
VSports columnist, Author
p2883
sa(dp2884
g2
VHeather Graham
p2885
sg4
Vhttps://upload.wikimedia.org/wikipedia/en/4/4a/Commons-logo.svg
p2886
sg6
g17
sg8
V{{Birth date and age|mf=yes|1970|1|29}}
p2887
sg10
g17
sg12
VActress, film producer, writer, model
p2888
sa(dp2889
g2
VDavid Ebershoff
p2890
sg4
Vhttps://upload.wikimedia.org/wikipedia/en/4/4a/Commons-logo.svg
p2891
sg6
S'{{URL|http://www.ebershoff.com}}'
p2892
sg8
g17
sg10
S'American'
p2893
sg12
S'Writer'
p2894
sa(dp2895
g2
VHank Haney
p2896
sg4
Vhttps://upload.wikimedia.org/wikipedia/commons/e/ec/Hank_Haney_with_Tiger_Woods.jpg
p2897
sg6
g17
sg8
S'{{Birth date and age|1955|8|24}}'
p2898
sg10
S'American'
p2899
sg12
S'Professional golf instructor'
p2900
sa(dp2901
g2
VChristopher Hitchens
p2902
sg4
Vhttps://upload.wikimedia.org/wikipedia/en/4/4a/Commons-logo.svg
p2903
sg6
g85
sg8
V{{birth date|1949|04|13|df=yes}}
p2904
sg10
VBritish <small>(1949\u20132011)</small> , American <small>(2007\u20132011)</small>
p2905
sg12
VJournalist<br/>Author
p2906
sa(dp2907
g2
VAngela Duckworth
p2908
sg4
Vhttps://upload.wikimedia.org/wikipedia/en/c/c2/Crystal_Clear_app_Login_Manager_2.png
p2909
sg6
V
p2910
sg8
g85
sg10
VAmerican
p2911
sg12
g17
sa(dp2912
g2
VYann Martel
p2913
sg4
Vhttps://upload.wikimedia.org/wikipedia/commons/f/fa/Wikiquote-logo.svg
p2914
sg6
g85
sg8
VJune 25th 1963 (age 52)
p2915
sg10
VCanadian
p2916
sg12
VNovelist
p2917
sa(dp2918
g2
VMaeve Binchy
p2919
sg4
Vhttps://upload.wikimedia.org/wikipedia/commons/8/85/Binchy33.jpg
p2920
sg6
g17
sg8
V{{birth date|1939|5|28|df=yes}} <ref name="dudgeon"/>
p2921
sg10
VIrish
p2922
sg12
VWriter
p2923
sa(dp2924
g2
VLorrie Moore
p2925
sg4
Vhttps://upload.wikimedia.org/wikipedia/commons/8/8a/Lorrie_Moore.JPG
p2926
sg6
g17
sg8
V{{birth date and age|1957|01|13}}
p2927
sg10
VAmerican
p2928
sg12
VShort-story writer, Novelist
p2929
sa(dp2930
g2
VLisa See
p2931
sg4
Vhttps://upload.wikimedia.org/wikipedia/en/4/4a/Commons-logo.svg
p2932
sg6
g17
sg8
V{{birth date and age|1955|02|18|df=yes}}
p2933
sg10
g17
sg12
VNovelist, Biographer, Writer, Community Leader
p2934
sa(dp2935
g2
VPeter Matthiessen
p2936
sg4
Vhttps://upload.wikimedia.org/wikipedia/commons/a/ae/Peter_Matthiessen_photograph.jpg
p2937
sg6
g17
sg8
V{{Birth date|1927|05|22}}
p2938
sg10
VAmerican
p2939
sg12
VWriter
p2940
sa(dp2941
g2
VStephen Hawking
p2942
sg4
Vhttps://upload.wikimedia.org/wikipedia/en/4/4a/Commons-logo.svg
p2943
sg6
V{{URL|hawking.org.uk}}
p2944
sg8
V{{birth date and age|1942|1|8|df=y}}
p2945
sg10
VBritish
p2946
sg12
g17
sa(dp2947
g2
VOrson Scott Card
p2948
sg4
Vhttps://upload.wikimedia.org/wikipedia/en/4/4a/Commons-logo.svg
p2949
sg6
V{{URL|www.hatrack.com}}
p2950
sg8
V{{birth date and age|1951|8|24}}
p2951
sg10
VAmerican
p2952
sg12
VAuthor, critic, playwright&thinsp;/&thinsp;script writer, poet, public speaker, essayist, political activist, Prof. of Writing and Literature
p2953
sa(dp2954
g2
VEric Clapton
p2955
sg4
Vhttps://upload.wikimedia.org/wikipedia/commons/f/fa/Wikiquote-logo.svg
p2956
sg6
V{{URL|http://www.ericclapton.com/}}
p2957
sg8
V{{Birth date and age|1945|3|30|df=y}}
p2958
sg10
g17
sg12
V{{flatlist| * Guitarist * singer * songwriter * record producer }}
p2959
sa(dp2960
g2
VDambisa Moyo
p2961
sg4
Vhttps://upload.wikimedia.org/wikipedia/commons/e/e7/Dambisa_Moyo3.jpg
p2962
sg6
g17
sg8
V{{birth date and age|df=yes|1969|2|2}}
p2963
sg10
g17
sg12
VEconomist, author
p2964
sa(dp2965
g2
VJhumpa Lahiri
p2966
sg4
Vhttps://upload.wikimedia.org/wikipedia/en/4/4a/Commons-logo.svg
p2967
sg6
V{{URL|http://www.randomhouse.com/kvpa/jhumpalahiri/}}
p2968
sg8
V{{birth date and age|1967|7|11|df=y}}
p2969
sg10
g85
sg12
g85
sa(dp2970
g2
VVince Flynn
p2971
sg4
Vhttps://upload.wikimedia.org/wikipedia/en/4/4a/Commons-logo.svg
p2972
sg6
g17
sg8
V{{birth date|mf=yes|1966|4|6}}
p2973
sg10
g17
sg12
VWriter, novelist, television consultant
p2974
sa(dp2975
g2
VMark Twain
p2976
sg4
Vhttps://upload.wikimedia.org/wikipedia/en/6/69/P_vip.svg
p2977
sg6
g17
sg8
V{{birth date|mf=yes|1835|11|30}}
p2978
sg10
VAmerican
p2979
sg12
VWriter, lecturer
p2980
sa(dp2981
g2
VChris Matthews
p2982
sg4
Vhttps://upload.wikimedia.org/wikipedia/en/4/4a/Commons-logo.svg
p2983
sg6
g17
sg8
V{{birth date and age|mf=yes|1945|12|17}}
p2984
sg10
g17
sg12
VNews anchor, political commentator
p2985
sa(dp2986
g2
VAmy Chua
p2987
sg4
Vhttps://upload.wikimedia.org/wikipedia/en/4/4a/Commons-logo.svg
p2988
sg6
V[http://www.amychua.com/ AmyChua.com]
p2989
sg8
V{{birth date and age|1962|10|26}}
p2990
sg10
VAmerican
p2991
sg12
VThe John M. Duff, Jr. Professor of Law at Yale Law School
p2992
sa(dp2993
g2
VLiane Moriarty
p2994
sg4
g17
sg6
S'{{URL|http://lianemoriarty.com.au/}}'
p2995
sg8
S'November 1966'
p2996
sg10
S'Australian'
p2997
sg12
S'Novelist'
p2998
sa(dp2999
g2
VTucker Max
p3000
sg4
Vhttps://upload.wikimedia.org/wikipedia/en/4/4a/Commons-logo.svg
p3001
sg6
g17
sg8
V{{birth date and age|1975|9|27|mf=yes}}
p3002
sg10
g17
sg12
VWriter, blogger, producer
p3003
sa(dp3004
g2
VGregory Maguire
p3005
sg4
Vhttps://upload.wikimedia.org/wikipedia/en/4/48/Folder_Hexagonal_Icon.svg
p3006
sg6
V{{URL|http://www.gregorymaguire.com/home.html}}
p3007
sg8
V{{Birth date and age|1954|6|9|mf=y}}
p3008
sg10
VAmerican
p3009
sg12
VNovelist
p3010
sa(dp3011
g2
VCarlos Ruiz Zafn
p3012
sg4
Vhttps://upload.wikimedia.org/wikipedia/en/4/4a/Commons-logo.svg
p3013
sg6
g85
sg8
V{{Birth date and age|1964|09|25|df=yes}}
p3014
sg10
g17
sg12
Vwriter
p3015
sa(dp3016
g2
VCraig Shirley
p3017
sg4
Vhttps://upload.wikimedia.org/wikipedia/en/0/01/A_coloured_voting_box.svg
p3018
sg6
V{{URL|http://www.craigshirley.com}}
p3019
sg8
V{{Birth date and age|1956|9|24}}
p3020
sg10
VAmerican
p3021
sg12
VReagan biographer and historian
p3022
sa(dp3023
g2
VDana Stabenow
p3024
sg4
Vhttps://upload.wikimedia.org/wikipedia/commons/f/fa/Wikiquote-logo.svg
p3025
sg6
V{{URL|http://www.stabenow.com}}
p3026
sg8
V{{Birth date and age|1952|3|27}}
p3027
sg10
VAmerican
p3028
sg12
Vnovelist
p3029
sa(dp3030
g2
VPhilipp Meyer
p3031
sg4
g17
sg6
V{{URL|http://www.philippmeyer.net/}}
p3032
sg8
VJanuary 5, 1974 (age 42)
p3033
sg10
VAmerican
p3034
sg12
VNovelist
p3035
sa(dp3036
g2
VLynne Cheney
p3037
sg4
Vhttps://upload.wikimedia.org/wikipedia/en/4/4a/Commons-logo.svg
p3038
sg6
g17
sg8
V{{birth date and age|1941|8|14}}
p3039
sg10
g17
sg12
g17
sa(dp3040
g2
VJohn Paul Stevens
p3041
sg4
Vhttps://upload.wikimedia.org/wikipedia/commons/f/f3/Seal_of_the_United_States_Supreme_Court.svg
p3042
sg6
g17
sg8
V{{birth date and age|1920|4|20}}
p3043
sg10
g17
sg12
g17
sa(dp3044
g2
VCatherine Anderson
p3045
sg4
Vhttps://upload.wikimedia.org/wikipedia/commons/3/3f/Book_collection.jpg
p3046
sg6
V{{URL|http://www.CatherineAnderson.com}}
p3047
sg8
V{{Birth date and age|1948|12|22}}
p3048
sg10
VAmerican
p3049
sg12
VNovelist
p3050
sa(dp3051
g2
VJohanna Lindsey
p3052
sg4
g17
sg6
g17
sg8
S'{{Birth date and age|1952|3|10}}'
p3053
sg10
S'American'
p3054
sg12
g17
sa(dp3055
g2
VDonna Tartt
p3056
sg4
g17
sg6
g17
sg8
V{{Birth date and age|1963|12|23}}
p3057
sg10
VAmerican
p3058
sg12
VFiction writer
p3059
sa(dp3060
g2
VTed Cruz
p3061
sg4
Vhttps://upload.wikimedia.org/wikipedia/en/4/4a/Commons-logo.svg
p3062
sg6
V{{url|cruz.senate.gov}}
p3063
sg8
V{{birth date and age|1970|12|22}}
p3064
sg10
g17
sg12
g17
sa(dp3065
g2
VLena Dunham
p3066
sg4
Vhttps://upload.wikimedia.org/wikipedia/en/4/4a/Commons-logo.svg
p3067
sg6
g17
sg8
V{{birth date and age|1986|05|13}}
p3068
sg10
g17
sg12
VActress, writer, director, producer
p3069
sa(dp3070
g2
VBill Bryson
p3071
sg4
Vhttps://upload.wikimedia.org/wikipedia/en/4/4a/Commons-logo.svg
p3072
sg6
V{{URL|http://billbryson.co.uk}}
p3073
sg8
V{{birth date and age|1951|12|08}}
p3074
sg10
g17
sg12
VAuthor
p3075
sa(dp3076
g2
VJamie McGuire
p3077
sg4
Vhttps://upload.wikimedia.org/wikipedia/en/4/4a/Commons-logo.svg
p3078
sg6
g17
sg8
V{{Birth date and age|1983|11|13|df=y}}
p3079
sg10
g17
sg12
g17
sa(dp3080
g2
VNeil Young
p3081
sg4
Vhttps://upload.wikimedia.org/wikipedia/en/4/4a/Commons-logo.svg
p3082
sg6
g17
sg8
V{{birth date and age|1945|11|12}}
p3083
sg10
g17
sg12
VMusician, singer-songwriter, producer, director, screenwriter, humanitarian, entrepreneur
p3084
sa(dp3085
g2
VDeborah Harkness
p3086
sg4
Vhttps://upload.wikimedia.org/wikipedia/commons/0/02/Deborah_Harkness_CHF-Deborah-Harkness-046_crop.jpg
p3087
sg6
V{{URL|http://www.deborahharkness.com/}}
p3088
sg8
g85
sg10
VAmerican
p3089
sg12
VScholar, novelist
p3090
sa(dp3091
g2
VSuzanne Brockmann
p3092
sg4
g17
sg6
V{{URL|http://www.suzannebrockmann.com/}}
p3093
sg8
V{{birth year and age|1960}}
p3094
sg10
VAmerican
p3095
sg12
VNovelist
p3096
sa(dp3097
g2
VDyan Cannon
p3098
sg4
Vhttps://upload.wikimedia.org/wikipedia/en/e/e7/Video-x-generic.svg
p3099
sg6
g17
sg8
V{{birth date and age|mf=y|1937|01|04}}
p3100
sg10
g17
sg12
VActress, director, screenwriter, film editor, film producer
p3101
sa(dp3102
g2
VMichio Kaku
p3103
sg4
Vhttps://upload.wikimedia.org/wikipedia/en/4/4a/Commons-logo.svg
p3104
sg6
Vhttp://mkaku.org/home/
p3105
sg8
V{{birth date and age|1947|1|24}}
p3106
sg10
VAmerican
p3107
sg12
g17
sa(dp3108
g2
VDebbie Macomber
p3109
sg4
Vhttps://upload.wikimedia.org/wikipedia/commons/3/3f/Book_collection.jpg
p3110
sg6
V{{URL|http://www.DebbieMacomber.com}}
p3111
sg8
V{{Birth date and age|1948|10|22}}
p3112
sg10
VAmerican
p3113
sg12
VNovelist
p3114
sa(dp3115
g2
VPhilip Roth
p3116
sg4
Vhttps://upload.wikimedia.org/wikipedia/commons/f/fa/Wikiquote-logo.svg
p3117
sg6
g85
sg8
V{{Birth date and age|1933|3|19|mf=y}}
p3118
sg10
VAmerican
p3119
sg12
VNovelist
p3120
sa(dp3121
g2
VPaul Ryan
p3122
sg4
Vhttps://upload.wikimedia.org/wikipedia/en/4/4a/Commons-logo.svg
p3123
sg6
V{{url|speaker.gov|Speaker website}}, {{url|paulryan.house.gov|House website}}
p3124
sg8
V{{birth date and age|1970|1|29}}
p3125
sg10
g17
sg12
g17
sa(dp3126
g2
VJonathan Lethem
p3127
sg4
Vhttps://upload.wikimedia.org/wikipedia/en/4/4a/Commons-logo.svg
p3128
sg6
V{{URL|http://www.jonathanlethem.com}}
p3129
sg8
V{{birth date and age|mf=yes|1964|2|19}}
p3130
sg10
VAmerican
p3131
sg12
VNovelist, essayist, short story writer
p3132
sa(dp3133
g2
VMaryJanice Davidson
p3134
sg4
Vhttps://upload.wikimedia.org/wikipedia/en/6/65/MaryJanice_Davidson_publicity_photo_2010_freely_licensed.jpg
p3135
sg6
V{{URL|http://www.maryjanicedavidson.net}}
p3136
sg8
VAugust {{birth year and age|1969}}
p3137
sg10
VAmerican
p3138
sg12
VNovelist
p3139
sa(dp3140
g2
VDavid Ignatius
p3141
sg4
Vhttps://upload.wikimedia.org/wikipedia/en/4/4a/Commons-logo.svg
p3142
sg6
g85
sg8
V{{Birth date and age|1950|05|26}}
p3143
sg10
VAmerican-Armenian
p3144
sg12
VAnalyst
p3145
sa(dp3146
g2
VMichael Crichton
p3147
sg4
Vhttps://upload.wikimedia.org/wikipedia/en/4/4a/Commons-logo.svg
p3148
sg6
V{{URL|www.crichton-official.com}}
p3149
sg8
V{{Birth date|mf=yes|1942|10|23}}
p3150
sg10
VAmerican
p3151
sg12
VAuthor, film producer, film director, screenwriter, television producer
p3152
sa(dp3153
g2
VJames Lee Burke
p3154
sg4
g17
sg6
V{{URL|www.jamesleeburke.com/}}
p3155
sg8
V{{Birth date and age|1936|12|5}}
p3156
sg10
VAmerican
p3157
sg12
VWriter, novelist
p3158
sa(dp3159
g2
VLaura Lippman
p3160
sg4
Vhttps://upload.wikimedia.org/wikipedia/en/4/4a/Commons-logo.svg
p3161
sg6
V{{URL|http://www.lauralippman.com/}}
p3162
sg8
V{{birth date and age|1959|01|31}}
p3163
sg10
g85
sg12
VAuthor
p3164
sa(dp3165
g2
VJill Shalvis
p3166
sg4
Vhttps://upload.wikimedia.org/wikipedia/commons/b/b4/Ambox_important.svg
p3167
sg6
S'{{URL|http://www.JillShalvis.com}}'
p3168
sg8
g17
sg10
S'American'
p3169
sg12
S'Novelist'
p3170
sa(dp3171
g2
VBen Macintyre
p3172
sg4
g17
sg6
g17
sg8
V25 December 1963
p3173
sg10
VBritish
p3174
sg12
VColumnist, author
p3175
sa(dp3176
g2
VWoody Guthrie
p3177
sg4
Vhttps://upload.wikimedia.org/wikipedia/en/4/4a/Commons-logo.svg
p3178
sg6
g85
sg8
V{{Birth date|mf=yes|1912|07|14}}
p3179
sg10
g17
sg12
VSinger-songwriter
p3180
sa(dp3181
g2
VCharles Duhigg
p3182
sg4
Vhttps://upload.wikimedia.org/wikipedia/en/4/4a/Commons-logo.svg
p3183
sg6
V{{URL|charlesduhigg.com}}
p3184
sg8
V{{Birth year and age|1974}}
p3185
sg10
VUSA
p3186
sg12
Vjournalist, author
p3187
sa(dp3188
g2
VMaya Angelou
p3189
sg4
Vhttps://upload.wikimedia.org/wikipedia/en/4/4a/Commons-logo.svg
p3190
sg6
V{{URL|http://www.mayaangelou.com}}
p3191
sg8
V{{Birth date|mf=yes|1928|4|4}}
p3192
sg10
g17
sg12
VAuthor, poet, civil rights activist
p3193
sa(dp3194
g2
VMichael Savage
p3195
sg4
Vhttps://upload.wikimedia.org/wikipedia/en/9/94/Symbol_support_vote.svg
p3196
sg6
V[http://www.michaelsavage.wnd.com www.michaelsavage.wnd.com]
p3197
sg8
V{{birth date and age|1942|3|31}}
p3198
sg10
g17
sg12
VRadio talk show host, author, political and social commentator
p3199
sa(dp3200
g2
VPaul Kengor
p3201
sg4
Vhttps://upload.wikimedia.org/wikipedia/commons/b/b4/Ambox_important.svg
p3202
sg6
g17
sg8
V{{Birth date and age|df=yes|1966|12|6}}
p3203
sg10
VAmerican
p3204
sg12
g17
sa(dp3205
g2
VJennifer Lopez
p3206
sg4
Vhttps://upload.wikimedia.org/wikipedia/en/4/48/Folder_Hexagonal_Icon.svg
p3207
sg6
V{{URL|jenniferlopez.com}}
p3208
sg8
V{{birth date and age|1969|7|24}}
p3209
sg10
g17
sg12
V{{hlist|Actress|author|dancer|fashion designer|producer|singer|songwriter|television personality}}
p3210
sa(dp3211
g2
VJanet Evanovich
p3212
sg4
Vhttps://upload.wikimedia.org/wikipedia/commons/1/14/Janet_Evanovich_20100914.jpg
p3213
sg6
V{{URL|http://www.evanovich.com}}
p3214
sg8
V{{Birth date and age|1943|4|22|mf=y}}
p3215
sg10
VAmerican
p3216
sg12
VNovelist
p3217
sa(dp3218
g2
VLisa Lutz
p3219
sg4
Vhttps://upload.wikimedia.org/wikipedia/commons/f/f7/LisaLutz.jpg
p3220
sg6
g17
sg8
S'{{Birth date|1970|3|13|df=yes}}'
p3221
sg10
g17
sg12
S'Author'
p3222
sa(dp3223
g2
VHugh Howey
p3224
sg4
Vhttps://upload.wikimedia.org/wikipedia/commons/9/92/Hugh_Howey_Headshot.jpg
p3225
sg6
V{{URL|hughhowey.com}}
p3226
sg8
VJune 23, 1975
p3227
sg10
VAmerican
p3228
sg12
VWriter
p3229
sa(dp3230
g2
VChuck Pfarrer
p3231
sg4
g17
sg6
V[http://www.chuckpfarrer.com chuckpfarrer.com ]
p3232
sg8
V{{birth date and age|1957|4|13}}
p3233
sg10
VAmerican
p3234
sg12
VNovelist, screenwriter, author, war correspondent
p3235
sa(dp3236
g2
VAlessandra Torre
p3237
sg4
Vhttps://upload.wikimedia.org/wikipedia/en/b/b7/Alessandra_Torre.jpg
p3238
sg6
V{{URL|http://www.alessandratorre.com}}
p3239
sg8
g17
sg10
VAmerican
p3240
sg12
VNovelist
p3241
sa(dp3242
g2
VBetty White
p3243
sg4
Vhttps://upload.wikimedia.org/wikipedia/en/4/4a/Commons-logo.svg
p3244
sg6
g17
sg8
V{{birth date and age|1922|1|17}}
p3245
sg10
g17
sg12
VActress, comedian, writer, singer
p3246
sa(dp3247
g2
VRick Atkinson
p3248
sg4
Vhttps://upload.wikimedia.org/wikipedia/en/4/4a/Commons-logo.svg
p3249
sg6
V[http://liberationtrilogy.com/ The Liberation Trilogy, by Rick Atkinson <nowiki>
p3250
sg8
V{{birth date and age|1952|11|16}}
p3251
sg10
g17
sg12
V{{Unbulleted list | Journalist, editor | historian, author }}
p3252
sa(dp3253
g2
VWalter Kirn
p3254
sg4
g17
sg6
g85
sg8
V{{Birth date and age|1962|8|3|mf=y}}
p3255
sg10
VUnited States
p3256
sg12
VNovelist, literary critic, essayist
p3257
sa(dp3258
g2
VTom Perrotta
p3259
sg4
Vhttps://upload.wikimedia.org/wikipedia/en/4/4a/Commons-logo.svg
p3260
sg6
V{{URL|http://www.tomperrotta.net}}
p3261
sg8
V{{birth date and age|1961|8|13}}
p3262
sg10
VAmerican
p3263
sg12
VNovelist, screenwriter
p3264
sa(dp3265
g2
VJean Hanff Korelitz
p3266
sg4
Vhttps://upload.wikimedia.org/wikipedia/en/4/43/Copyright-problem_paste_2.svg
p3267
sg6
V
p3268
sg8
V
p3269
sg10
g17
sg12
VAuthor
p3270
sa(dp3271
g2
VNeal Stephenson
p3272
sg4
Vhttps://upload.wikimedia.org/wikipedia/en/4/4a/Commons-logo.svg
p3273
sg6
V{{URL|nealstephenson.com}}
p3274
sg8
V{{birth date and age|mf=yes|1959|10|31}}
p3275
sg10
VAmerican
p3276
sg12
VNovelist, short story writer, essayist
p3277
sa(dp3278
g2
VSarah Waters
p3279
sg4
Vhttps://upload.wikimedia.org/wikipedia/en/4/4a/Commons-logo.svg
p3280
sg6
V{{URL|http://www.sarahwaters.com}}
p3281
sg8
V{{Birth date and age|df=yes|1966|7|21}}
p3282
sg10
VBritish
p3283
sg12
VNovelist
p3284
sa(dp3285
g2
VBarbara Delinsky
p3286
sg4
Vhttps://upload.wikimedia.org/wikipedia/commons/b/b4/Ambox_important.svg
p3287
sg6
V{{URL|http://www.BarbaraDelinsky.com}}
p3288
sg8
V{{Birth date and age|1945|8|9|mf=y}}
p3289
sg10
VAmerican
p3290
sg12
VNovelist, Non-fiction writer
p3291
sa(dp3292
g2
VTim Weiner
p3293
sg4
Vhttps://upload.wikimedia.org/wikipedia/commons/0/08/Tim_Weiner.JPG
p3294
sg6
g85
sg8
V{{birth date and age|1956|06|20}}
p3295
sg10
g85
sg12
Vjournalist, author
p3296
sa(dp3297
g2
VKate Siegel
p3298
sg4
g17
sg6
g17
sg8
g85
sg10
g17
sg12
V{{Plainlist| * Actress * Screenwriter}}
p3299
sa(dp3300
g2
VLaura Griffin
p3301
sg4
Vhttps://upload.wikimedia.org/wikipedia/en/0/0f/Laura_Griffin.jpg
p3302
sg6
V{{URL|www.lauragriffin.com}}
p3303
sg8
g85
sg10
VAmerica
p3304
sg12
VNovelist
p3305
sa(dp3306
g2
VPenn Jillette
p3307
sg4
Vhttps://upload.wikimedia.org/wikipedia/en/4/4a/Commons-logo.svg
p3308
sg6
V[http://www.pennandteller.com/ Penn and Teller.com]
p3309
sg8
V{{Birth date and age|1955|3|5|mf=yes}}
p3310
sg10
VAmerican
p3311
sg12
VMagician, illusionist, writer, actor, inventor, juggler, comedian, musician
p3312
sa(dp3313
g2
VLinda Lael Miller
p3314
sg4
g17
sg6
V{{URL|http://www.lindalaelmiller.com}}
p3315
sg8
V1949
p3316
sg10
VAmerican
p3317
sg12
Vnovelist
p3318
sa(dp3319
g2
VHarlan Coben
p3320
sg4
Vhttps://upload.wikimedia.org/wikipedia/en/4/4a/Commons-logo.svg
p3321
sg6
V{{URL|www.harlancoben.com}}
p3322
sg8
V{{Birth date and age|1962|1|4}}
p3323
sg10
VAmerican
p3324
sg12
VAuthor
p3325
sa(dp3326
g2
VSally Bedell Smith
p3327
sg4
Vhttps://upload.wikimedia.org/wikipedia/commons/b/b4/Ambox_important.svg
p3328
sg6
V{{URL|www.sallybedellsmith.com/|Sally Bedell Smith: Bestselling Biographies on The Clintons, The Kennedys, Princess Diana, Pamela Harriman and William S. Paley}}
p3329
sg8
V{{Birth date and age|1948|5|27}}
p3330
sg10
VAmerican
p3331
sg12
Vwriter
p3332
sa(dp3333
g2
VSonia Sotomayor
p3334
sg4
Vhttps://upload.wikimedia.org/wikipedia/en/4/4a/Commons-logo.svg
p3335
sg6
g17
sg8
V{{birth date and age|1954|6|25}}
p3336
sg10
g17
sg12
g17
sa(dp3337
g2
VTeresa Giudice
p3338
sg4
g17
sg6
V{{url|http://www.teresagiudice.com/}}
p3339
sg8
V{{birth date and age|1972|5|18|43}}
p3340
sg10
g17
sg12
V{{flat list| * Television personality * author * entrepreneur }}
p3341
sa(dp3342
g2
VJeremy Scahill
p3343
sg4
Vhttps://upload.wikimedia.org/wikipedia/en/4/4a/Commons-logo.svg
p3344
sg6
g17
sg8
V{{Birth date and age|mf=yes|1974|10|18}}
p3345
sg10
g17
sg12
VInvestigative journalist
p3346
sa(dp3347
g2
VAlexandra Fuller
p3348
sg4
Vhttps://upload.wikimedia.org/wikipedia/commons/5/5c/Bookbits_-_2011-11-04_Alexandra_Fuller-Cocktail_Hour_Under_the_Tree_of_Forgetfulness.vorb.oga
p3349
sg6
g17
sg8
V1969
p3350
sg10
VUnited Kingdom, Zimbabwe, United States
p3351
sg12
VAuthor
p3352
sa(dp3353
g2
VRobert Kurson
p3354
sg4
g17
sg6
g17
sg8
S'{{Birth date and age|1963|4|18}}'
p3355
sg10
g17
sg12
S'Author, journalist'
p3356
sa(dp3357
g2
VCarol Burnett
p3358
sg4
Vhttps://upload.wikimedia.org/wikipedia/en/4/4a/Commons-logo.svg
p3359
sg6
g17
sg8
V{{Birth date and age|1933|4|26}}
p3360
sg10
g17
sg12
VActress, comedian, singer, writer
p3361
sa(dp3362
g2
VJodi Picoult
p3363
sg4
Vhttps://upload.wikimedia.org/wikipedia/en/4/4a/Commons-logo.svg
p3364
sg6
V{{URL|http://jodipicoult.com/}}
p3365
sg8
V{{birth date and age|1966|5|19|mf=y}}
p3366
sg10
VAmerican
p3367
sg12
VNovelist
p3368
sa(dp3369
g2
VGlenn Greenwald
p3370
sg4
Vhttps://upload.wikimedia.org/wikipedia/en/4/4a/Commons-logo.svg
p3371
sg6
V{{URL|glenngreenwald.net|GlennGreenwald.net}}
p3372
sg8
V{{birth date and age|1967|03|06|mf=yes}}
p3373
sg10
VAmerican
p3374
sg12
V{{ubl |[[Journalist |Author}}
p3375
sa(dp3376
g2
VHerman Koch
p3377
sg4
Vhttps://upload.wikimedia.org/wikipedia/en/4/4a/Commons-logo.svg
p3378
sg6
V{{URL|hermankoch.nl/}}
p3379
sg8
V{{Birth date and age|df=yes|1953|09|05}}
p3380
sg10
g85
sg12
VWriter, actor
p3381
sa(dp3382
g2
VGeorge Takei
p3383
sg4
Vhttps://upload.wikimedia.org/wikipedia/en/4/4a/Commons-logo.svg
p3384
sg6
V{{url|www.GeorgeTakei.com}}
p3385
sg8
V{{Birth date and age|mf=yes|1937|4|20}}
p3386
sg10
g17
sg12
VActor, author, and voice artist, director, activist
p3387
sa(dp3388
g2
VKatherine Boo
p3389
sg4
Vhttps://upload.wikimedia.org/wikipedia/commons/a/a2/Boo_katherine_download_4.jpg
p3390
sg6
g17
sg8
V{{Birth date and age|1964|08|12}}
p3391
sg10
VAmerican
p3392
sg12
Vinvestigative journalist
p3393
sa(dp3394
g2
VHctor Tobar
p3395
sg4
Vhttps://upload.wikimedia.org/wikipedia/en/4/4a/Commons-logo.svg
p3396
sg6
g17
sg8
V1963
p3397
sg10
g17
sg12
Vjournalist
p3398
sa(dp3399
g2
VPhillip Margolin
p3400
sg4
Vhttps://upload.wikimedia.org/wikipedia/commons/3/34/Phillip_Margolin_cut.jpg
p3401
sg6
S'{{URL|http://www.phillipmargolin.com/}}'
p3402
sg8
S'1944'
p3403
sg10
S'USA'
p3404
sg12
S'Novelist'
p3405
sa(dp3406
g2
VAnne Fortier
p3407
sg4
Vhttps://upload.wikimedia.org/wikipedia/commons/5/5c/Anne_fortier.png
p3408
sg6
V{{URL|www.annefortier.com}}
p3409
sg8
V
p3410
sg10
g17
sg12
VWriter
p3411
sa(dp3412
g2
VLesley Stahl
p3413
sg4
Vhttps://upload.wikimedia.org/wikipedia/en/4/4a/Commons-logo.svg
p3414
sg6
g17
sg8
V{{birth date and age|1941|12|16}}
p3415
sg10
g17
sg12
VNews reporter
p3416
sa(dp3417
g2
VAbraham Verghese
p3418
sg4
Vhttps://upload.wikimedia.org/wikipedia/en/4/4a/Commons-logo.svg
p3419
sg6
V{{URL|http://www.abrahamverghese.com/}}
p3420
sg8
V{{birth year and age|1955}}
p3421
sg10
VAmerican
p3422
sg12
VProfessor of medicine, author of three best-selling books
p3423
sa(dp3424
g2
VJoshua Foer
p3425
sg4
Vhttps://upload.wikimedia.org/wikipedia/commons/1/13/Joshua-foer-2007.png
p3426
sg6
g17
sg8
S'{{birth-date and age|September 23, 1982}}'
p3427
sg10
S'American'
p3428
sg12
S'journalist, writer'
p3429
sa(dp3430
g2
VJohn Cleese
p3431
sg4
Vhttps://upload.wikimedia.org/wikipedia/en/4/4a/Commons-logo.svg
p3432
sg6
V{{URL|thejohncleese.com}}
p3433
sg8
V{{birth date and age|1939|10|27|df=yes}}
p3434
sg10
g17
sg12
V{{hlist|Actor|voice actor|screenwriter|comedian|film producer}}
p3435
sa(dp3436
g2
VErin Morgenstern
p3437
sg4
Vhttps://upload.wikimedia.org/wikipedia/commons/1/15/Erin_morgenstern_2011.jpg
p3438
sg6
V{{URL|erinmorgenstern.com}}
p3439
sg8
V{{Birth date and age|1978|07|08}}<ref name=naFAQ>{{cite web|last=Morgenstern|first=Erin|title=not really a FAQ|url=http://erinmorgenstern.com/about/not-really-a-faq/|accessdate=30 May 2012}}</ref>
p3440
sg10
VAmerican
p3441
sg12
VNovelist
p3442
sa(dp3443
g2
VHolly Madison
p3444
sg4
Vhttps://upload.wikimedia.org/wikipedia/en/4/4a/Commons-logo.svg
p3445
sg6
V{{URL|http://www.hollymadison.com}}, {{URL|http://www.hollymadisonblog.com}}
p3446
sg8
V{{birth date and age|1979|12|23}}
p3447
sg10
g17
sg12
VAuthor, Model, TV personality
p3448
sa(dp3449
g2
VKyra Davis
p3450
sg4
g17
sg6
S'{{URL|http://www.kyradavis.com/}}'
p3451
sg8
g17
sg10
S'American'
p3452
sg12
S'Writer, novelist'
p3453
sa(dp3454
g2
VStephen Greenblatt
p3455
sg4
Vhttps://upload.wikimedia.org/wikipedia/en/f/fd/Stephen_Greenblatt_book_cover.gif
p3456
sg6
g17
sg8
V{{Birth date and age|1943|11|07}}
p3457
sg10
VAmerican
p3458
sg12
VWriter, Professor at Harvard University
p3459
sa(dp3460
g2
VPaolo Bacigalupi
p3461
sg4
Vhttps://upload.wikimedia.org/wikipedia/en/4/4a/Commons-logo.svg
p3462
sg6
V{{URL|windupstories.com}}
p3463
sg8
V{{birth date and age|1972|8|6}}
p3464
sg10
VAmerican
p3465
sg12
VWriter
p3466
sa(dp3467
g2
VJohn le Carr
p3468
sg4
Vhttps://upload.wikimedia.org/wikipedia/en/4/4a/Commons-logo.svg
p3469
sg6
V{{URL|http://johnlecarre.com/}}
p3470
sg8
V{{Birth date and age|1931|10|19||df=yes}}
p3471
sg10
VBritish
p3472
sg12
VNovelist, former intelligence officer
p3473
sa(dp3474
g2
VKristin Hannah
p3475
sg4
g17
sg6
S'{{URL|http://www.KristinHannah.com/}}'
p3476
sg8
S'September 25, 1960 '
p3477
sg10
S'American'
p3478
sg12
S'Novelist'
p3479
sa(dp3480
g2
VJon Ronson
p3481
sg4
Vhttps://upload.wikimedia.org/wikipedia/commons/0/07/Jon_Ronson_TAM_London_2009.JPG
p3482
sg6
V{{URL | jonronson.com | JonRonson.com }}
p3483
sg8
V{{birth date and age|df=yes|1967|05|10}}
p3484
sg10
g17
sg12
V{{nowrap|Author{{dot}}Screenwriter,  Documentary filmmaker,  Radio presenter{{dot}}Journalist}}
p3485
sa(dp3486
g2
VLaura Ingalls Wilder
p3487
sg4
Vhttps://upload.wikimedia.org/wikipedia/en/4/4a/Commons-logo.svg
p3488
sg6
g17
sg8
V{{Birth date|1867|02|07}}
p3489
sg10
VAmerican
p3490
sg12
VWriter, teacher, journalist, family farmer
p3491
sa(dp3492
g2
VGary Shteyngart
p3493
sg4
Vhttps://upload.wikimedia.org/wikipedia/commons/a/af/GaryShteyngart.jpg
p3494
sg6
g85
sg8
V{{Birth date and age|1972|7|5}}
p3495
sg10
VUnited States
p3496
sg12
VNovelist
p3497
sa(dp3498
g2
VJames Gleick
p3499
sg4
Vhttps://upload.wikimedia.org/wikipedia/commons/2/2a/Bookbits_-_2011-05-04_James_Gleick-The_Information.vorb.oga
p3500
sg6
V{{URL|http://around.com}}
p3501
sg8
V{{Birth date and age|1954|08|01}}
p3502
sg10
g17
sg12
Vwriter
p3503
sa(dp3504
g2
VDinesh D'Souza
p3505
sg4
Vhttps://upload.wikimedia.org/wikipedia/en/4/41/Flag_of_India.svg
p3506
sg6
V{{URL|http://www.dineshdsouza.com}}
p3507
sg8
V{{Birth date and age|1961|4|25}}
p3508
sg10
g17
sg12
VPolitical commentator
p3509
sa(dp3510
g2
VMark Urban
p3511
sg4
Vhttps://upload.wikimedia.org/wikipedia/commons/7/70/Mark_Urban_-_Chatham_House_2011.jpg
p3512
sg6
g85
sg8
V{{birth year and age|1961}}
p3513
sg10
VBritish
p3514
sg12
VBBC correspondent, Military Historian
p3515
sa(dp3516
g2
VJoan Rivers
p3517
sg4
Vhttps://upload.wikimedia.org/wikipedia/en/4/4a/Commons-logo.svg
p3518
sg6
g17
sg8
V{{birth date|1933|6|8}}
p3519
sg10
g17
sg12
VActress, comedian, writer, producer, television host
p3520
sa(dp3521
g2
VJames Salter
p3522
sg4
Vhttps://upload.wikimedia.org/wikipedia/en/4/4a/Commons-logo.svg
p3523
sg6
g17
sg8
V{{birth date|1925|6|10|mf=y}}
p3524
sg10
g17
sg12
VWriter
p3525
sa(dp3526
g2
VSheri Fink
p3527
sg4
g17
sg6
V
p3528
sg8
V
p3529
sg10
g17
sg12
VJournalist
p3530
sa(dp3531
g2
VBruce Schneier
p3532
sg4
Vhttps://upload.wikimedia.org/wikipedia/en/4/4a/Commons-logo.svg
p3533
sg6
V{{URL|https://www.schneier.com}}
p3534
sg8
V{{Birth date and age|mf=yes|1963|1|15}}<ref name=fb />
p3535
sg10
g17
sg12
g17
sa(dp3536
g2
VReif Larsen
p3537
sg4
g17
sg6
g17
sg8
V{{birth year and age|1980}}
p3538
sg10
g17
sg12
VAuthor
p3539
sa(dp3540
g2
VLily Koppel
p3541
sg4
g17
sg6
V{{URL|http://www.astronautwivesclub.com}}
p3542
sg8
V1981
p3543
sg10
VAmerican
p3544
sg12
VAuthor
p3545
sa(dp3546
g2
VGena Showalter
p3547
sg4
Vhttps://upload.wikimedia.org/wikipedia/commons/b/b4/Ambox_important.svg
p3548
sg6
V{{URL|http://www.genashowalter.com/}}
p3549
sg8
V{{birth year and age|1975}}
p3550
sg10
VAmerican
p3551
sg12
VNovelist
p3552
sa(dp3553
g2
VSimon Sebag Montefiore
p3554
sg4
Vhttps://upload.wikimedia.org/wikipedia/commons/c/cc/Simon_Sebag_Montefiore_2011.jpg
p3555
sg6
g17
sg8
V27 June 1965
p3556
sg10
g85
sg12
VAuthor
p3557
sa(dp3558
g2
VRuth Reichl
p3559
sg4
Vhttps://upload.wikimedia.org/wikipedia/commons/e/e5/Ruth_Reichl.jpg
p3560
sg6
g17
sg8
V
p3561
sg10
VUnited States
p3562
sg12
VFood writer, magazine editor, chef
p3563
sa(dp3564
g2
VEmma Donoghue
p3565
sg4
Vhttps://upload.wikimedia.org/wikipedia/commons/e/e3/Irish-Canadian_author_Emma_Donoghue.JPG
p3566
sg6
V{{URL|http://www.emmadonoghue.com}}
p3567
sg8
V{{Birth date and age|df=yes|1969|10|24}}
p3568
sg10
VIrish, Canadian<ref name="js"/>
p3569
sg12
Vnovelist, short story writer, playwright, literary historian
p3570
sa(dp3571
g2
VBrian Stelter
p3572
sg4
Vhttps://upload.wikimedia.org/wikipedia/commons/2/25/Brian_Stelter.png
p3573
sg6
S'[http://reliablesources.blogs.cnn.com/ Reliable Sources - CNN.com blogs]'
p3574
sg8
S'{{birth date and age|1985|9|3}}'
p3575
sg10
S'American'
p3576
sg12
S'Journalist'
p3577
sa(dp3578
g2
VColson Whitehead
p3579
sg4
Vhttps://upload.wikimedia.org/wikipedia/en/4/4a/Commons-logo.svg
p3580
sg6
V{{URL|http://www.colsonwhitehead.com/}}
p3581
sg8
VNovember 6, 1969
p3582
sg10
VAmerican
p3583
sg12
VWriter
p3584
sa(dp3585
g2
VJean Stein
p3586
sg4
g17
sg6
g17
sg8
S'c. 1934'
p3587
sg10
g17
sg12
S'Author, editor'
p3588
sa(dp3589
g2
VWilbur Smith
p3590
sg4
Vhttps://upload.wikimedia.org/wikipedia/en/4/4a/Commons-logo.svg
p3591
sg6
V{{URL|http://wilbursmithbooks.com/}}
p3592
sg8
V{{birth date and age|df=yes|1933|1|9}}
p3593
sg10
g17
sg12
VNovelist
p3594
sa(dp3595
g2
VJan Karon
p3596
sg4
Vhttps://upload.wikimedia.org/wikipedia/en/9/99/Question_book-new.svg
p3597
sg6
g17
sg8
V1937
p3598
sg10
g17
sg12
g17
sa(dp3599
g2
VTa-Nehisi Coates
p3600
sg4
Vhttps://upload.wikimedia.org/wikipedia/en/4/4a/Commons-logo.svg
p3601
sg6
V
p3602
sg8
V{{birth date and age |1975|9|30}}
p3603
sg10
g17
sg12
VWriter<br/>Journalist
p3604
sa(dp3605
g2
VTimothy Zahn
p3606
sg4
Vhttps://upload.wikimedia.org/wikipedia/commons/f/ff/10.12.12TimothyZahnByLuigiNovi3.jpg
p3607
sg6
g17
sg8
V{{birth date and age|1951|9|1}}
p3608
sg10
VAmerican
p3609
sg12
VAuthor
p3610
sa(dp3611
g2
VKatherine Howe
p3612
sg4
g17
sg6
V{{URL|http://www.katherinehowe.com}}
p3613
sg8
V1977
p3614
sg10
g17
sg12
VNovelist
p3615
sa(dp3616
g2
VMichael Moore
p3617
sg4
Vhttps://upload.wikimedia.org/wikipedia/en/4/4a/Commons-logo.svg
p3618
sg6
V{{URL|http://michaelmoore.com}}
p3619
sg8
V{{birth date and age|1954|4|23}}
p3620
sg10
g17
sg12
V{{flatlist| *Director *producer *writer *author *journalist *political activist *actor}}
p3621
sa(dp3622
g2
VWalter Isaacson
p3623
sg4
Vhttps://upload.wikimedia.org/wikipedia/commons/6/67/WalterIsaacsonStateDeptUSPPImage1.JPG
p3624
sg6
g85
sg8
V{{birth date and age|1952|05|20}}
p3625
sg10
g17
sg12
VAuthor
p3626
sa(dp3627
g2
VNevada Barr
p3628
sg4
Vhttps://upload.wikimedia.org/wikipedia/en/4/4a/Commons-logo.svg
p3629
sg6
V{{URL|http://www.nevadabarr.com}}
p3630
sg8
V{{Birth date and age|1952|03|01}}
p3631
sg10
VAmerican
p3632
sg12
VAuthor
p3633
sa(dp3634
g2
VMercedes Lackey
p3635
sg4
Vhttps://upload.wikimedia.org/wikipedia/commons/b/b4/Ambox_important.svg
p3636
sg6
V{{URL|mercedeslackey.com}}
p3637
sg8
V{{Birth date and age|1950|6|24|mf=y}}
p3638
sg10
VAmerican
p3639
sg12
VNovelist, short story writer
p3640
sa(dp3641
g2
VMark Mazzetti
p3642
sg4
g17
sg6
g17
sg8
V{{birth date and age|mf=yes|1974|5|13}}
p3643
sg10
g17
sg12
VJournalist
p3644
sa(dp3645
g2
VEllen DeGeneres
p3646
sg4
Vhttps://upload.wikimedia.org/wikipedia/en/4/4a/Commons-logo.svg
p3647
sg6
g17
sg8
V{{birth date and age|1958|1|26}}
p3648
sg10
g17
sg12
g17
sa(dp3649
g2
VBarbara Ehrenreich
p3650
sg4
Vhttps://upload.wikimedia.org/wikipedia/commons/8/83/Barbara_Ehrenreich_2_by_David_Shankbone.jpg
p3651
sg6
V{{URL|http://barbaraehrenreich.com/}}
p3652
sg8
V{{Birth date and age|1941|8|26|mf=y}}
p3653
sg10
g17
sg12
Vsocial critic, journalist, author, activist
p3654
sa(dp3655
g2
VFaith Hunter
p3656
sg4
Vhttps://upload.wikimedia.org/wikipedia/en/6/69/P_vip.svg
p3657
sg6
V{{URL|http://www.faithhunter.net/}}
p3658
sg8
g85
sg10
VUnited States
p3659
sg12
Vnovelist
p3660
sa(dp3661
g2
VSarah Palin
p3662
sg4
Vhttps://upload.wikimedia.org/wikipedia/en/6/69/P_vip.svg
p3663
sg6
V{{url|sarahpalinchannel.com|Official website}}
p3664
sg8
V{{birth date and age|1964|2|11}}
p3665
sg10
g17
sg12
g17
sa(dp3666
g2
VAdam Grant
p3667
sg4
Vhttps://upload.wikimedia.org/wikipedia/commons/d/d8/Adam_Grant.jpg
p3668
sg6
V{{URL|http://www.adamgrant.net/}}
p3669
sg8
V{{Birth date and age|1981|8|13}}
p3670
sg10
VU.S.
p3671
sg12
VAuthor, professor
p3672
sa(dp3673
g2
VAlice McDermott
p3674
sg4
Vhttps://upload.wikimedia.org/wikipedia/en/4/4a/Commons-logo.svg
p3675
sg6
g85
sg8
V{{birth date and age|1953|06|27|mf=y}}
p3676
sg10
VAmerican
p3677
sg12
Vnovelist, Essayist
p3678
sa(dp3679
g2
VRichard Paul Evans
p3680
sg4
Vhttps://upload.wikimedia.org/wikipedia/commons/b/b4/Ambox_important.svg
p3681
sg6
g17
sg8
S'{{Birth date and age|1962|10|11}}'
p3682
sg10
g17
sg12
g17
sa(dp3683
g2
VDylan Ratigan
p3684
sg4
Vhttps://upload.wikimedia.org/wikipedia/commons/2/21/Dylan_Ratigan_HEADSHOT.jpg
p3685
sg6
g17
sg8
V{{birth date and age|1972|04|19}}
p3686
sg10
g17
sg12
VFounder, Helical Holdings
p3687
sa(dp3688
g2
VJack Higgins
p3689
sg4
Vhttps://upload.wikimedia.org/wikipedia/en/8/87/Jack_Higgins.jpg
p3690
sg6
g85
sg8
V{{birth date and age|df=y|1929|07|27}}
p3691
sg10
VBritish
p3692
sg12
VNovelist
p3693
sa(dp3694
g2
VJamie Ford
p3695
sg4
Vhttps://upload.wikimedia.org/wikipedia/commons/4/44/JamieFord.jpg
p3696
sg6
V{{URL|http://www.jamieford.com}}
p3697
sg8
VJuly 9, 1968
p3698
sg10
VAmerican
p3699
sg12
VAuthor
p3700
sa(dp3701
g2
VMimi Alford
p3702
sg4
g17
sg6
g17
sg8
V{{Birth date and age|1943|05|07}}
p3703
sg10
g17
sg12
g17
sa(dp3704
g2
VDavid Duchovny
p3705
sg4
Vhttps://upload.wikimedia.org/wikipedia/en/4/4a/Commons-logo.svg
p3706
sg6
g17
sg8
V{{birth date and age|mf=yes|1960|8|7}}
p3707
sg10
g17
sg12
VActor, director, producer, writer, singer-songwriter
p3708
sa(dp3709
g2
VBill Clinton
p3710
sg4
Vhttps://upload.wikimedia.org/wikipedia/commons/4/43/Senate_in_session.jpg
p3711
sg6
V{{URL|clintonlibrary.gov|Library website}}
p3712
sg8
V{{Birth date and age|1946|8|19}}
p3713
sg10
g17
sg12
g17
sa(dp3714
g2
VLincoln Child
p3715
sg4
Vhttps://upload.wikimedia.org/wikipedia/commons/1/1c/Wiki_letter_w_cropped.svg
p3716
sg6
V{{URL|http://www.prestonchild.com}}
p3717
sg8
V1957 (age 57)
p3718
sg10
VAmerican
p3719
sg12
VNovelist, editor
p3720
sa(dp3721
g2
VJo Nesb
p3722
sg4
Vhttps://upload.wikimedia.org/wikipedia/commons/b/b4/Ambox_important.svg
p3723
sg6
V{{URL|http://www.jonesbo.com/}}
p3724
sg8
V{{Birth date and age|df=yes|1960|3|29}}
p3725
sg10
VNorwegian
p3726
sg12
VCrime Novelist, Musician
p3727
sa(dp3728
g2
VDanielle Trussoni
p3729
sg4
Vhttps://upload.wikimedia.org/wikipedia/en/4/4a/Commons-logo.svg
p3730
sg6
V{{URL|http://www.danielletrussoni.com}}
p3731
sg8
g17
sg10
VAmerican
p3732
sg12
VNovelist
p3733
sa(dp3734
g2
VEleanor Roosevelt
p3735
sg4
Vhttps://upload.wikimedia.org/wikipedia/en/c/c0/Georgetbye.jpg
p3736
sg6
g17
sg8
V{{birth date|1884|10|11}}
p3737
sg10
g17
sg12
g17
sa(dp3738
g2
VTina Fey
p3739
sg4
Vhttps://upload.wikimedia.org/wikipedia/en/4/4a/Commons-logo.svg
p3740
sg6
g17
sg8
V{{Birth date and age|1970|05|18}}
p3741
sg10
g17
sg12
V{{hlist |Actress |comedian |writer |producer}}
p3742
sa(dp3743
g2
VWilliam Gibson
p3744
sg4
Vhttps://upload.wikimedia.org/wikipedia/en/4/4a/Commons-logo.svg
p3745
sg6
V{{URL|http://WilliamGibsonbooks.com}}
p3746
sg8
V{{birth date and age|mf=yes|1948|3|17}}
p3747
sg10
VAmerican, Canadian
p3748
sg12
VNovelist
p3749
sa(dp3750
g2
VLouise Erdrich
p3751
sg4
Vhttps://upload.wikimedia.org/wikipedia/commons/4/4b/Books-aj.svg_aj_ashton_01.svg
p3752
sg6
g85
sg8
V{{Birth date and age|1954|6|7|mf=y}}
p3753
sg10
g17
sg12
VNovelist, short story writer, poet
p3754
sa(dp3755
g2
VDavid Stockman
p3756
sg4
Vhttps://upload.wikimedia.org/wikipedia/commons/1/1a/Seal_of_the_United_States_House_of_Representatives.svg
p3757
sg6
Vhttp://davidstockmanscontracorner.com
p3758
sg8
V{{Birth date and age|1946|11|10||mf=y}}
p3759
sg10
g85
sg12
g85
sa(dp3760
g2
VAimee Bender
p3761
sg4
g17
sg6
g17
sg8
V{{bda|1969|06|28}}
p3762
sg10
g17
sg12
VAuthor, writer
p3763
sa(dp3764
g2
VBarry Eisler
p3765
sg4
Vhttps://upload.wikimedia.org/wikipedia/en/4/4a/Commons-logo.svg
p3766
sg6
V{{URL|http://www.barryeisler.com/}}
p3767
sg8
V{{birth year and age|1964}}
p3768
sg10
g17
sg12
VWriter
p3769
sa(dp3770
g2
VRielle Hunter
p3771
sg4
Vhttps://upload.wikimedia.org/wikipedia/commons/c/c2/John_Edwards%2C_official_Senate_photo_portrait.jpg
p3772
sg6
g85
sg8
V{{Birth date and age|1964|03|20}}
p3773
sg10
VAmerican
p3774
sg12
VFilmmaker
p3775
sa(dp3776
g2
VJenny Lawson
p3777
sg4
Vhttps://upload.wikimedia.org/wikipedia/commons/0/09/The_Bloggess.jpg
p3778
sg6
g17
sg8
g85
sg10
g17
sg12
VJournalist, blogger
p3779
sa(dp3780
g2
VEthan Hawke
p3781
sg4
Vhttps://upload.wikimedia.org/wikipedia/en/4/4a/Commons-logo.svg
p3782
sg6
g17
sg8
V{{birth date and age|1970|11|06}}
p3783
sg10
g17
sg12
VActor, director, screenwriter, novelist
p3784
sa(dp3785
g2
VSimon Schama
p3786
sg4
Vhttps://upload.wikimedia.org/wikipedia/en/4/4a/Commons-logo.svg
p3787
sg6
g17
sg8
V{{birth date and age|df=yes|1945|02|13}}
p3788
sg10
VBritish
p3789
sg12
g17
sa(dp3790
g2
VAudrey Niffenegger
p3791
sg4
Vhttps://upload.wikimedia.org/wikipedia/en/4/4a/Commons-logo.svg
p3792
sg6
V{{URL|http://www.audreyniffenegger.com/}}
p3793
sg8
V{{Birth date and age|1963|6|13}}
p3794
sg10
VAmerican
p3795
sg12
VNovelist, artist
p3796
sa(dp3797
g2
VKathy Reichs
p3798
sg4
Vhttps://upload.wikimedia.org/wikipedia/en/4/4a/Commons-logo.svg
p3799
sg6
V{{URL|http://www.kathyreichs.com}}
p3800
sg8
V{{birth year and age|1948|07|07}}
p3801
sg10
VAmerican
p3802
sg12
VForensic Anthropologist, Novelist, Professor <ref name=EB/>
p3803
sa(dp3804
g2
VMeg Wolitzer
p3805
sg4
Vhttps://upload.wikimedia.org/wikipedia/commons/2/28/Meg_wolitzer_2011.jpg
p3806
sg6
V{{URL|http://megwolitzer.com/}}
p3807
sg8
V{{birth date and age|1959|05|28}}
p3808
sg10
VAmerican
p3809
sg12
Vnovelist, Essayist
p3810
sa(dp3811
g2
VStieg Larsson
p3812
sg4
Vhttps://upload.wikimedia.org/wikipedia/en/1/1b/Stieg_Larsson.jpg
p3813
sg6
V{{URL|http://stieglarsson.se/}}
p3814
sg8
V{{birth date|1954|8|15|df=y}}
p3815
sg10
VSwedish
p3816
sg12
VJournalist, novelist
p3817
sa(dp3818
g2
VEric Jerome Dickey
p3819
sg4
Vhttps://upload.wikimedia.org/wikipedia/commons/3/3d/Eric_jerome_dickey_5172391.JPG
p3820
sg6
S'http://www.ericjeromedickey.com'
p3821
sg8
S'{{birth date and age|1961|7|7}}'
p3822
sg10
S'American'
p3823
sg12
S'Author'
p3824
sa(dp3825
g2
VJane Smiley
p3826
sg4
Vhttps://upload.wikimedia.org/wikipedia/commons/4/47/Jane_smiley_2009.jpg
p3827
sg6
g17
sg8
V{{birth date and age|1949|9|26|mf=y}}
p3828
sg10
VAmerican
p3829
sg12
g17
sa(dp3830
g2
VDan Balz
p3831
sg4
Vhttps://upload.wikimedia.org/wikipedia/en/2/24/Crystal_personal.svg
p3832
sg6
V
p3833
sg8
V
p3834
sg10
VAmerican
p3835
sg12
g85
sa(dp3836
g2
VRichard Engel
p3837
sg4
Vhttps://upload.wikimedia.org/wikipedia/en/4/4a/Commons-logo.svg
p3838
sg6
g17
sg8
V{{Birth date and age|1973|9|16}}
p3839
sg10
g17
sg12
VCorrespondent
p3840
sa(dp3841
g2
VFrans de Waal
p3842
sg4
Vhttps://upload.wikimedia.org/wikipedia/en/4/4a/Commons-logo.svg
p3843
sg6
g17
sg8
V{{Birth date and age|mf=yes|1948|10|29|}}
p3844
sg10
g17
sg12
VPrimatologist, Ethologist
p3845
sa(dp3846
g2
VNancy Pickard
p3847
sg4
Vhttps://upload.wikimedia.org/wikipedia/commons/0/03/Nancy_pickard.jpg
p3848
sg6
V{{URL|http://www.nancypickard.com/}}
p3849
sg8
V{{Birth date and age|1945|09|19}}
p3850
sg10
VAmerican
p3851
sg12
Vcrime writer
p3852
sa(dp3853
g2
VEmily Giffin
p3854
sg4
Vhttps://upload.wikimedia.org/wikipedia/en/6/6b/WhereWeBelongGiffin2012.jpg
p3855
sg6
V{{URL|http://www.emilygiffin.com}}
p3856
sg8
V{{Birth date and age|1972|03|20}}
p3857
sg10
VAmerican
p3858
sg12
VWriter, former lawyer
p3859
sa(dp3860
g2
VPat Conroy
p3861
sg4
Vhttps://upload.wikimedia.org/wikipedia/en/9/99/Question_book-new.svg
p3862
sg6
V{{URL|http://patconroy.com/}}
p3863
sg8
V{{Birth date|1945|10|26|mf=y}}
p3864
sg10
VAmerican
p3865
sg12
VNovelist
p3866
sa(dp3867
g2
VPaula McLain
p3868
sg4
g17
sg6
S'{{URL|http://www.randomhouse.com/rhpg/features/paula_mclain/}}'
p3869
sg8
S'1965'
p3870
sg10
S'American'
p3871
sg12
S'novelist,'
p3872
sa(dp3873
g2
VDrew Karpyshyn
p3874
sg4
Vhttps://upload.wikimedia.org/wikipedia/en/4/48/Folder_Hexagonal_Icon.svg
p3875
sg6
V{{URL|http://www.drewkarpyshyn.com/}}
p3876
sg8
V{{Birth date and age|1971|7|28}}
p3877
sg10
g17
sg12
VNovelist, game designer
p3878
sa(dp3879
g2
VKarl Marlantes
p3880
sg4
Vhttps://upload.wikimedia.org/wikipedia/commons/f/fa/Wikiquote-logo.svg
p3881
sg6
V
p3882
sg8
V{{Birth date and age|1944|12|24}}
p3883
sg10
g85
sg12
Vinternational business consultant
p3884
sa(dp3885
g2
VTaylor Armstrong
p3886
sg4
Vhttps://upload.wikimedia.org/wikipedia/en/4/4a/Commons-logo.svg
p3887
sg6
g17
sg8
V{{birth date and age|1971|06|10|mf=y}}
p3888
sg10
g17
sg12
VTelevision personality, philanthropist
p3889
sa(dp3890
g2
VDiana Gabaldon
p3891
sg4
Vhttps://upload.wikimedia.org/wikipedia/commons/2/2c/DianaGabaldon-BookSigning-August11-07.png
p3892
sg6
V{{URL|www.dianagabaldon.com}}
p3893
sg8
V{{Birth date and age|1952|1|11|mf=y}}
p3894
sg10
g17
sg12
VNovelist, Professor
p3895
sa(dp3896
g2
VAmy Tan
p3897
sg4
Vhttps://upload.wikimedia.org/wikipedia/en/4/4a/Commons-logo.svg
p3898
sg6
V{{URL|http://www.AmyTanAuthor.com/}}
p3899
sg8
V{{birth date and age|1952|2|19|mf=y}}
p3900
sg10
VAmerican
p3901
sg12
VWriter
p3902
sa(dp3903
g2
VNoah Hawley
p3904
sg4
Vhttps://upload.wikimedia.org/wikipedia/commons/8/83/Noah_Hawley_%2815042030244%29.jpg
p3905
sg6
V{{URL|http://www.noahhawley.com/}}
p3906
sg8
V1967
p3907
sg10
VAmerican
p3908
sg12
VAuthor, screenwriter, producer, composer
p3909
sa(dp3910
g2
VSeth Grahame-Smith
p3911
sg4
Vhttps://upload.wikimedia.org/wikipedia/commons/7/7f/Seth_Grahame-Smith_by_Gage_Skidmore.jpg
p3912
sg6
V{{URL|sethgrahamesmith.com}}
p3913
sg8
V{{birth date and age|1976|1|4}}
p3914
sg10
VAmerican
p3915
sg12
VNovelist, screenwriter, film producer
p3916
sa(dp3917
g2
VJonah Lehrer
p3918
sg4
Vhttps://upload.wikimedia.org/wikipedia/commons/1/1c/Wiki_letter_w_cropped.svg
p3919
sg6
Vhttps://jonahlehrer.com
p3920
sg8
V{{birth date and age|1981|6|25}}
p3921
sg10
VAmerican
p3922
sg12
Vblogger, book author,  and contributor
p3923
sa(dp3924
g2
VFrank Bruni
p3925
sg4
g17
sg6
g17
sg8
V{{Birth date and age|1964|10|31|mf=y}}
p3926
sg10
g17
sg12
VOp-cd columnist, ''New York Times''; former chief restaurant critic
p3927
sa(dp3928
g2
VZadie Smith
p3929
sg4
Vhttps://upload.wikimedia.org/wikipedia/en/4/4a/Commons-logo.svg
p3930
sg6
g85
sg8
V{{Birth date and age|df=yes|1975|10|25}}
p3931
sg10
VBritish
p3932
sg12
VNovelist, professor of creative writing
p3933
sa(dp3934
g2
VLinda Ronstadt
p3935
sg4
Vhttps://upload.wikimedia.org/wikipedia/en/4/4a/Commons-logo.svg
p3936
sg6
V{{official website}}
p3937
sg8
V{{Birth date and age|1946|7|15}}
p3938
sg10
g17
sg12
VSinger, songwriter, musician, record producer, actress, activist
p3939
sa(dp3940
g2
VToni Morrison
p3941
sg4
Vhttps://upload.wikimedia.org/wikipedia/en/4/4a/Commons-logo.svg
p3942
sg6
g17
sg8
V{{birth date and age|1931|2|18|mf=y}}
p3943
sg10
g17
sg12
VNovelist, writer
p3944
sa(dp3945
g2
VPiper Kerman
p3946
sg4
Vhttps://upload.wikimedia.org/wikipedia/commons/7/77/Piper_Kerman_University_of_Missouri_book_signing_%28cropped%29.jpg
p3947
sg6
V{{URL|piperkerman.com}}
p3948
sg8
V{{birth date and age|1969|09|28}}
p3949
sg10
g17
sg12
VWriter, author, memoirist
p3950
sa(dp3951
g2
VTa Obreht
p3952
sg4
Vhttps://upload.wikimedia.org/wikipedia/commons/5/57/T%C3%A9a_Obreht_2014.jpg
p3953
sg6
V{{URL|teaobreht.com/}}
p3954
sg8
V{{birth date and age|1985|09|30|df=y}}
p3955
sg10
g17
sg12
VFiction writer
p3956
sa(dp3957
g2
VFareed Zakaria
p3958
sg4
Vhttps://upload.wikimedia.org/wikipedia/en/4/4a/Commons-logo.svg
p3959
sg6
g17
sg8
V{{birth date and age|mf=yes|1964|01|20}}
p3960
sg10
g17
sg12
VJournalist, author
p3961
sa(dp3962
g2
VKristan Higgins
p3963
sg4
Vhttps://upload.wikimedia.org/wikipedia/commons/f/fa/Big_Book_blue.svg
p3964
sg6
S'{{URL|http://www.KristanHiggins.com/}}'
p3965
sg8
g17
sg10
S'America'
p3966
sg12
S'Novelist'
p3967
sa(dp3968
g2
VJack McCallum
p3969
sg4
Vhttps://upload.wikimedia.org/wikipedia/commons/1/1c/Wiki_letter_w_cropped.svg
p3970
sg6
g17
sg8
V{{birth year and age|1949}}
p3971
sg10
g85
sg12
VNovelist and sportswriter
p3972
sa(dp3973
g2
VDouglas Preston
p3974
sg4
g17
sg6
V{{URL|http://www.prestonchild.com}}
p3975
sg8
V{{birth date and age|1956|05|20}}
p3976
sg10
VAmerican
p3977
sg12
VNovelist, journalist
p3978
sa(dp3979
g2
VTatiana de Rosnay
p3980
sg4
Vhttps://upload.wikimedia.org/wikipedia/commons/e/e0/Paris_-_Salon_du_livre_2013_-_Tatiana_de_Rosnay_001.jpg
p3981
sg6
g85
sg8
V{{Birth date and age|1961|09|28|df=y}}
p3982
sg10
g17
sg12
VJournalist, Writer, Screenwriter
p3983
sa(dp3984
g2
VAnthony Bourdain
p3985
sg4
Vhttps://upload.wikimedia.org/wikipedia/en/4/4a/Commons-logo.svg
p3986
sg6
g17
sg8
V{{birth date and age|mf=yes|1956|06|25}}
p3987
sg10
g17
sg12
g17
sa(dp3988
g2
VAdriana Trigiani
p3989
sg4
Vhttps://upload.wikimedia.org/wikipedia/en/6/69/P_vip.svg
p3990
sg6
Vwww.adrianatrigiani.com
p3991
sg8
g17
sg10
g17
sg12
Vnovelist, television writer, producer, film director
p3992
sa(dp3993
g2
VDiane Mott Davidson
p3994
sg4
g17
sg6
S'{{URL|http://www.dianemottdavidson.com}}'
p3995
sg8
S'{{Birth date and age|mf=yes|1949|3|22}}'
p3996
sg10
S'United States'
p3997
sg12
S'Novelist'
p3998
sa(dp3999
g2
VEoin Colfer
p4000
sg4
Vhttps://upload.wikimedia.org/wikipedia/commons/2/29/Iris_centralheterochromy.jpg
p4001
sg6
V{{URL|www.eoincolfer.com}}
p4002
sg8
V{{Birth date and age|1965|05|14|df=y}}
p4003
sg10
VIrish
p4004
sg12
VWriter
p4005
sa(dp4006
g2
VRichard Ford
p4007
sg4
Vhttps://upload.wikimedia.org/wikipedia/en/4/4a/Commons-logo.svg
p4008
sg6
g85
sg8
V{{Birth date and age|1944|2|16|mf=y}}
p4009
sg10
VUnited States
p4010
sg12
Vnovelist, short story writer
p4011
sa(dp4012
g2
VMichael Pollan
p4013
sg4
Vhttps://upload.wikimedia.org/wikipedia/en/4/4a/Commons-logo.svg
p4014
sg6
V{{URL | michaelpollan.com | MichaelPollan.com }}
p4015
sg8
V{{birth date and age|1955|02|06}}
p4016
sg10
g17
sg12
VAuthor, journalist, professor
p4017
sa(dp4018
g2
VIan Doescher
p4019
sg4
Vhttps://upload.wikimedia.org/wikipedia/commons/a/a7/Ian_Doescher_Empire_reading2.jpg
p4020
sg6
g85
sg8
V
p4021
sg10
VAmerican
p4022
sg12
VWriter
p4023
sa(dp4024
g2
VAnne Bishop
p4025
sg4
Vhttps://upload.wikimedia.org/wikipedia/en/9/99/Question_book-new.svg
p4026
sg6
V{{URL|annebishop.com}}
p4027
sg8
V
p4028
sg10
VAmerican
p4029
sg12
VWriter
p4030
sa(dp4031
g2
VRick Springfield
p4032
sg4
Vhttps://upload.wikimedia.org/wikipedia/en/4/4a/Commons-logo.svg
p4033
sg6
V{{URL|rickspringfield.com}}
p4034
sg8
V{{Birth date and age|1949|8|23|df=y}}
p4035
sg10
g17
sg12
VMusician, singer-songwriter, record producer, actor, author
p4036
sa(dp4037
g2
VChelsea Handler
p4038
sg4
Vhttps://upload.wikimedia.org/wikipedia/en/4/4a/Commons-logo.svg
p4039
sg6
V[http://www.chelseahandler.com ChelseaHandler.com]
p4040
sg8
V{{birth date and age|1975|2|25}}
p4041
sg10
g17
sg12
VActress, writer, comedian, talk show host, producer
p4042
sa(dp4043
g2
VMeg Cabot
p4044
sg4
Vhttps://upload.wikimedia.org/wikipedia/en/4/4a/Commons-logo.svg
p4045
sg6
V{{URL|http://megcabot.com}}
p4046
sg8
V{{birth date and age|1967|2|1}}
p4047
sg10
g17
sg12
VWriter
p4048
sa(dp4049
g2
VSteven Pinker
p4050
sg4
Vhttps://upload.wikimedia.org/wikipedia/en/4/4a/Commons-logo.svg
p4051
sg6
V{{URL|http://www.stevenpinker.com/}}
p4052
sg8
V{{Birth date and age|mf=yes|1954|09|18}}
p4053
sg10
VCanadian / American
p4054
sg12
g17
sa(dp4055
g2
VEmma Straub
p4056
sg4
Vhttps://upload.wikimedia.org/wikipedia/commons/0/0a/Quill_and_ink-US.svg
p4057
sg6
V{{url|http://www.emmastraub.net}}
p4058
sg8
g85
sg10
VUnited States
p4059
sg12
VAuthor
p4060
sa(dp4061
g2
VThomas Pynchon
p4062
sg4
Vhttps://upload.wikimedia.org/wikipedia/en/1/13/Pynchon-Simpsons-001.jpg
p4063
sg6
g17
sg8
V{{Birth date and age|mf=yes|1937|5|8}}
p4064
sg10
VAmerican
p4065
sg12
VNovelist
p4066
sa(dp4067
g2
VAlexandra Robbins
p4068
sg4
Vhttps://upload.wikimedia.org/wikipedia/en/6/69/P_vip.svg
p4069
sg6
g85
sg8
V1976 
p4070
sg10
g85
sg12
g85
sa(dp4071
g2
VGloria Steinem
p4072
sg4
Vhttps://upload.wikimedia.org/wikipedia/en/9/94/Symbol_support_vote.svg
p4073
sg6
V[http://www.gloriasteinem.com/ gloriasteinem.com]
p4074
sg8
V{{Birth date and age|mf=yes|1934|3|25}}
p4075
sg10
VAmerican<ref name=history>{{cite web|url=http://www.historynet.com/gloria-steinem|title=Gloria Steinem|publisher=historynet.com|date= |accessdate=November 8, 2014}}</ref>
p4076
sg12
VWriter and journalist for ''Ms.'' and ''New York'' magazines<ref name=encyclopedia>{{cite web|url=http://www.encyclopedia.com/topic/Gloria_Steinem.aspx|title=Gloria Steinem|work=Encyclopedia of World Biography|date=2004|accessdate=November 9, 2014}}</ref>
p4077
sa(dp4078
g2
VDaniel Kahneman
p4079
sg4
Vhttps://upload.wikimedia.org/wikipedia/commons/f/fa/Wikiquote-logo.svg
p4080
sg6
V{{URL | princeton.edu/~kahneman/ }}
p4081
sg8
V{{Birth date and age|mf=yes|1934|3|5}}
p4082
sg10
VUnited States, Israel
p4083
sg12
g17
sa(dp4084
g2
VJudd Apatow
p4085
sg4
Vhttps://upload.wikimedia.org/wikipedia/commons/1/10/United_States_film.svg
p4086
sg6
g17
sg8
V{{birth date and age|1967|12|6}}
p4087
sg10
g17
sg12
VProducer, writer, director, actor, comedian
p4088
sa(dp4089
g2
VSherryl Woods
p4090
sg4
Vhttps://upload.wikimedia.org/wikipedia/commons/b/b4/Ambox_important.svg
p4091
sg6
S'{{URL|http://www.SherrylWoods.com}}'
p4092
sg8
S'{{Birth date and age|1944|7|23|mf=y}}'
p4093
sg10
S'American'
p4094
sg12
S'Novelist'
p4095
sa(dp4096
g2
VSarah McCoy
p4097
sg4
Vhttps://upload.wikimedia.org/wikipedia/en/6/6c/Wiki_letter_w.svg
p4098
sg6
V{{URL|http://sarahmccoy.com/}}
p4099
sg8
V1980
p4100
sg10
VAmerican
p4101
sg12
VAuthor
p4102
sa(dp4103
g2
VMark Bowden
p4104
sg4
g17
sg6
g17
sg8
V{{Birth date and age|1951|07|17|mf=yes}}
p4105
sg10
VAmerican
p4106
sg12
VAuthor
p4107
sa(dp4108
g2
VCharles Portis
p4109
sg4
Vhttps://upload.wikimedia.org/wikipedia/commons/f/fa/Wikiquote-logo.svg
p4110
sg6
g85
sg8
V{{Birth date and age|1933|12|28}}
p4111
sg10
g17
sg12
VWriter
p4112
sa(dp4113
g2
VMalcolm X
p4114
sg4
Vhttps://upload.wikimedia.org/wikipedia/commons/c/cb/Malcolm_X_NYWTS_2a.jpg
p4115
sg6
g85
sg8
V{{birth date|1925|5|19|mf=y}}
p4116
sg10
g17
sg12
VMinister, activist
p4117
sa(dp4118
g2
VDaniel Goleman
p4119
sg4
Vhttps://upload.wikimedia.org/wikipedia/commons/9/9e/Daniel_Goleman_-_World_Economic_Forum_Annual_Meeting_2011.jpg
p4120
sg6
V{{URL | danielgoleman.info | DanielGoleman.info }}
p4121
sg8
V{{Birth date and age|1946|03|07}}
p4122
sg10
g85
sg12
VWriter
p4123
sa(dp4124
g2
VKent Haruf
p4125
sg4
g17
sg6
g17
sg8
VFebruary 24, 1943
p4126
sg10
g17
sg12
VNovelist
p4127
sa(dp4128
g2
VGeorge Saunders
p4129
sg4
Vhttps://upload.wikimedia.org/wikipedia/commons/0/0c/George_Saunders_by_David_Shankbone.jpg
p4130
sg6
g17
sg8
V{{Birth date and age|1958|12|2|mf=y}}
p4131
sg10
VUnited States
p4132
sg12
VShort story writer, journalist, college professor
p4133
sa(dp4134
g2
VSean Naylor
p4135
sg4
Vhttps://upload.wikimedia.org/wikipedia/en/c/cf/Flag_of_Canada.svg
p4136
sg6
V{{Official website|http://www.seannaylor.com/}}{{dead link|date=October 2013}}
p4137
sg8
g85
sg10
VCanadian
p4138
sg12
VJournalist
p4139
sa(dp4140
g2
VBrad Meltzer
p4141
sg4
Vhttps://upload.wikimedia.org/wikipedia/commons/e/e8/Brad_pillar.jpg
p4142
sg6
V{{URL|http://www.bradmeltzer.com}}
p4143
sg8
V{{Birth date and age|1970|4|1|mf=y}}
p4144
sg10
VAmerican
p4145
sg12
VNovelist, screenwriter, comic book writer
p4146
sa(dp4147
g2
VJohn Scalzi
p4148
sg4
Vhttps://upload.wikimedia.org/wikipedia/en/4/4a/Commons-logo.svg
p4149
sg6
V{{URL|scalzi.com}}
p4150
sg8
V{{birth date and age|1969|5|10|}}
p4151
sg10
VAmerican
p4152
sg12
VWriter
p4153
sa(dp4154
g2
VJeff Shaara
p4155
sg4
Vhttps://upload.wikimedia.org/wikipedia/en/f/fb/Jeff_Shaara.jpg
p4156
sg6
V{{URL|http://jeffshaara.com/}}
p4157
sg8
V{{Birth date and age|1952|2|21}}
p4158
sg10
VAmerican
p4159
sg12
VNovelist
p4160
sa(dp4161
g2
VAnne Perry
p4162
sg4
Vhttps://upload.wikimedia.org/wikipedia/en/4/4a/Commons-logo.svg
p4163
sg6
V{{URL|http://www.anneperry.net/}}
p4164
sg8
V{{birth date and age|1938|10|28|df=y}}
p4165
sg10
g17
sg12
VAuthor
p4166
sa(dp4167
g2
VSimon Winchester
p4168
sg4
Vhttps://upload.wikimedia.org/wikipedia/commons/c/cb/SimonWinchester01.JPG
p4169
sg6
V{{URL|simonwinchester.com}}
p4170
sg8
V{{Birth date and age|1944|09|28|df=y}}
p4171
sg10
g17
sg12
VJournalist, author
p4172
sa(dp4173
g2
VMaya Banks
p4174
sg4
Vhttps://upload.wikimedia.org/wikipedia/en/1/14/Maya_Banks.jpg
p4175
sg6
V{{URL|http://www.mayabanks.com/}}
p4176
sg8
g85
sg10
VAmerican
p4177
sg12
VNovelist
p4178
sa(dp4179
g2
VDarrell Hammond
p4180
sg4
Vhttps://upload.wikimedia.org/wikipedia/commons/a/ad/Darrell_Hammond_by_Gage_Skidmore.jpg
p4181
sg6
g17
sg8
V{{Birth date and age|1955|10|8}}
p4182
sg10
g17
sg12
VActor, comedian, impressionist
p4183
sa(dp4184
g2
VMitch Albom
p4185
sg4
Vhttps://upload.wikimedia.org/wikipedia/commons/b/b4/Ambox_important.svg
p4186
sg6
V{{URL|http://mitchalbom.com/}}
p4187
sg8
V{{Birth date and age|1958|5|23}}
p4188
sg10
g17
sg12
VNovelist, sports journalist
p4189
sa(dp4190
g2
VJoan Didion
p4191
sg4
Vhttps://upload.wikimedia.org/wikipedia/commons/f/fa/Wikiquote-logo.svg
p4192
sg6
g85
sg8
V{{birth date and age|1934|12|05}}
p4193
sg10
VAmerican
p4194
sg12
VNovelist, memoirist, essayist
p4195
sa(dp4196
g2
VMark Greaney
p4197
sg4
g17
sg6
g85
sg8
V{{birth date and age|1980|6|23|df=y}}
p4198
sg10
g17
sg12
g85
sa(dp4199
g2
VGiuliana Rancic
p4200
sg4
Vhttps://upload.wikimedia.org/wikipedia/en/4/4a/Commons-logo.svg
p4201
sg6
V{{URL|giulianarancic.com}}
p4202
sg8
V{{birth date and age|1974|8|17}}
p4203
sg10
g17
sg12
VTelevision personality
p4204
sa(dp4205
g2
VBilly Idol
p4206
sg4
Vhttps://upload.wikimedia.org/wikipedia/en/4/4a/Commons-logo.svg
p4207
sg6
V{{URL|billyidol.net}}
p4208
sg8
V{{Birth date and age|df=yes|1955|11|30}}
p4209
sg10
g17
sg12
V{{Flat list| * Singer * songwriter * musician * actor }}
p4210
sa(dp4211
g2
VKhaled Hosseini
p4212
sg4
Vhttps://upload.wikimedia.org/wikipedia/en/4/4a/Commons-logo.svg
p4213
sg6
V{{URL|http://www.khaledhosseini.com/}}
p4214
sg8
V{{birth date and age |1965|3|04}}
p4215
sg10
g85
sg12
VNovelist, physician
p4216
sa(dp4217
g2
VTom Fitton
p4218
sg4
Vhttps://upload.wikimedia.org/wikipedia/commons/a/af/Tom_Fitton_by_Gage_Skidmore_%2816689026122%29.jpg
p4219
sg6
g17
sg8
g85
sg10
VUnited States
p4220
sg12
VActivist
p4221
sa(dp4222
g2
VEthan Canin
p4223
sg4
Vhttps://upload.wikimedia.org/wikipedia/en/4/4a/Commons-logo.svg
p4224
sg6
g17
sg8
VJuly 19, 1960
p4225
sg10
g17
sg12
Vauthor, educator, physician
p4226
sa(dp4227
g2
VRoger Moore
p4228
sg4
Vhttps://upload.wikimedia.org/wikipedia/en/4/4a/Commons-logo.svg
p4229
sg6
V{{url|http://www.roger-moore.com}}
p4230
sg8
V{{Birth date and age|1927|10|14|df=yes}}
p4231
sg10
VBritish
p4232
sg12
VActor
p4233
sa(dp4234
g2
VSteve Martin
p4235
sg4
Vhttps://upload.wikimedia.org/wikipedia/en/4/4a/Commons-logo.svg
p4236
sg6
g17
sg8
V{{Birth date and age|mf=yes|1945|8|14}}
p4237
sg10
g17
sg12
VActor, comedian, writer, producer, musician
p4238
sa(dp4239
g2
VPatti Smith
p4240
sg4
Vhttps://upload.wikimedia.org/wikipedia/en/4/4a/Commons-logo.svg
p4241
sg6
V{{URL|http://www.pattismith.net/}}
p4242
sg8
V{{Birth date and age|1946|12|30|mf=yes}}
p4243
sg10
g17
sg12
V{{flatlist| *visual artist *author }}
p4244
sa(dp4245
g2
VJohn Julius Norwich
p4246
sg4
Vhttps://upload.wikimedia.org/wikipedia/commons/b/b4/Ambox_important.svg
p4247
sg6
g17
sg8
V{{Birth date and age|1929|9|15}}
p4248
sg10
g85
sg12
VHistorian, travel writer and television personality
p4249
sa(dp4250
g2
VNaomi Novik
p4251
sg4
Vhttps://upload.wikimedia.org/wikipedia/commons/f/f1/Naomi_Novik_July08.jpg
p4252
sg6
V{{URL|http://www.temeraire.org/}}
p4253
sg8
V{{Birth date and age|1973|04|30}}
p4254
sg10
VAmerican
p4255
sg12
VWriter, computer programmer
p4256
sa(dp4257
g2
VDavid Baldacci
p4258
sg4
Vhttps://upload.wikimedia.org/wikipedia/en/4/4a/Commons-logo.svg
p4259
sg6
V{{URL|www.davidbaldacci.com}}
p4260
sg8
V{{Birth date and age|1960|8|5}}
p4261
sg10
g17
sg12
VNovelist
p4262
sa(dp4263
g2
VWalter Mosley
p4264
sg4
Vhttps://upload.wikimedia.org/wikipedia/en/4/4a/Commons-logo.svg
p4265
sg6
g17
sg8
V{{birth date and age|1952|01|12|mf=yes}}
p4266
sg10
g17
sg12
g17
sa(dp4267
g2
VJay Winik
p4268
sg4
Vhttps://upload.wikimedia.org/wikipedia/en/3/39/Jay_Winik_by_Carl_Caruso%2C_2015.jpg
p4269
sg6
V{{URL|jaywinik.com}}
p4270
sg8
V{{Birth date and age|1957|02|08}}
p4271
sg10
VAmerican
p4272
sg12
VWriter and historian
p4273
sa(dp4274
g2
VTerry Goodkind
p4275
sg4
Vhttps://upload.wikimedia.org/wikipedia/en/4/4a/Commons-logo.svg
p4276
sg6
V{{URL|terrygoodkind.com}}
p4277
sg8
V{{birth-date|1948}}
p4278
sg10
g17
sg12
VWriter
p4279
sa(dp4280
g2
VKate Jacobs
p4281
sg4
g17
sg6
V[http://www.katejacobsmusic.com/ www.katejacobsmusic.com]
p4282
sg8
V{{birth date and age|1959|1|11}}
p4283
sg10
g17
sg12
g85
sa(dp4284
g2
VDoug Dorst
p4285
sg4
Vhttps://upload.wikimedia.org/wikipedia/commons/f/fa/Big_Book_blue.svg
p4286
sg6
V{{URL|http://dougdorst.com}}
p4287
sg8
V
p4288
sg10
VAmerican
p4289
sg12
VWriter, Instructor
p4290
sa(dp4291
g2
VKen Follett
p4292
sg4
Vhttps://upload.wikimedia.org/wikipedia/en/4/4a/Commons-logo.svg
p4293
sg6
V{{URL|http://www.ken-follett.com/}}
p4294
sg8
V{{Birth date and age|1949|6|5|df=y}}
p4295
sg10
VBritish
p4296
sg12
VNovelist
p4297
sa(dp4298
g2
VPaul Theroux
p4299
sg4
Vhttps://upload.wikimedia.org/wikipedia/commons/f/fa/Wikiquote-logo.svg
p4300
sg6
g85
sg8
V{{Birth date and age|1941|4|10|mf=y}}
p4301
sg10
VAmerican
p4302
sg12
V{{Flatlist| * short story writer * literary critic }}
p4303
sa(dp4304
g2
VLenny Dykstra
p4305
sg4
Vhttps://upload.wikimedia.org/wikipedia/en/6/69/P_vip.svg
p4306
sg6
g17
sg8
V{{birth date and age|1963|2|10}}
p4307
sg10
g17
sg12
g17
sa(dp4308
g2
VTom Robbins
p4309
sg4
Vhttps://upload.wikimedia.org/wikipedia/commons/3/3b/Tom_Robbins.jpg
p4310
sg6
g85
sg8
V{{Birth date and age|mf=yes|1932|7|22}}
p4311
sg10
VAmerican
p4312
sg12
VNovelist, short story writer, essayist
p4313
sa(dp4314
g2
VFelicia Day
p4315
sg4
Vhttps://upload.wikimedia.org/wikipedia/en/4/4a/Commons-logo.svg
p4316
sg6
Vhttp://www.feliciaday.com/
p4317
sg8
V
p4318
sg10
VAmerican
p4319
sg12
VActress, producer, singer, writer
p4320
sa(dp4321
g2
VCaroline Moorehead
p4322
sg4
g17
sg6
V
p4323
sg8
V{{Birth date and age|df=yes|1944|10|28}}
p4324
sg10
VBritish
p4325
sg12
VBiographer, historian, human rights journalist, literary critic
p4326
sa(dp4327
g2
VKathryn Stockett
p4328
sg4
Vhttps://upload.wikimedia.org/wikipedia/commons/f/fa/Big_Book_blue.svg
p4329
sg6
S'{{URL|http://kathrynstockett.com}}'
p4330
sg8
S'1969'
p4331
sg10
S'American'
p4332
sg12
S'Author'
p4333
sa(dp4334
g2
VAlexander McCall Smith
p4335
sg4
Vhttps://upload.wikimedia.org/wikipedia/commons/f/fa/Wikiquote-logo.svg
p4336
sg6
V{{URL|http://www.alexandermccallsmith.co.uk/}}
p4337
sg8
V{{birth date and age|1948|08|24|df=yes}}
p4338
sg10
VBritish
p4339
sg12
VWriter, professor
p4340
sa(dp4341
g2
VRegina Calcaterra
p4342
sg4
g17
sg6
Vhttp://reginacalcaterra.com/
p4343
sg8
VNovember 9, 1966
p4344
sg10
g17
sg12
VSecurities attorney, state government executive
p4345
sa(dp4346
g2
VStephen Hunter
p4347
sg4
g17
sg6
g85
sg8
V{{Birth date and age|1946|3|25}}
p4348
sg10
VAmerican
p4349
sg12
Vfilm critic
p4350
sa(dp4351
g2
VFrank McCourt
p4352
sg4
Vhttps://upload.wikimedia.org/wikipedia/en/4/4a/Commons-logo.svg
p4353
sg6
g17
sg8
V{{birth date|1930|08|19|mf=yes}}
p4354
sg10
VIrish-American
p4355
sg12
VMemoirist, writer, teacher
p4356
sa(dp4357
g2
VSandra Brown
p4358
sg4
Vhttps://upload.wikimedia.org/wikipedia/commons/e/e5/Sandra_brown_2009.jpg
p4359
sg6
V{{URL|http://www.sandrabrown.net/|http://www.SandraBrown.net/}}
p4360
sg8
V{{birth date and age|1948|03|12}}
p4361
sg10
g17
sg12
VNovelist
p4362
sa(dp4363
g2
VErik Prince
p4364
sg4
Vhttps://upload.wikimedia.org/wikipedia/en/6/69/P_vip.svg
p4365
sg6
g85
sg8
V{{Birth date and age|1969|6|6}}
p4366
sg10
VAmerican
p4367
sg12
g85
sa(dp4368
g2
VJohn Elder Robison
p4369
sg4
Vhttps://upload.wikimedia.org/wikipedia/commons/2/28/John_Robison%2C_individual_with_Asperger_syndrome%2C_autism_activist%2C_May_2011.jpg
p4370
sg6
V{{URL|http://www.johnrobison.com/}}
p4371
sg8
V{{Birth date and age|1957|08|13|mf=y}}
p4372
sg10
VAmerican
p4373
sg12
VMemoirist
p4374
sa(dp4375
g2
VJodi Kantor
p4376
sg4
Vhttps://upload.wikimedia.org/wikipedia/en/4/4a/Commons-logo.svg
p4377
sg6
g17
sg8
V{{Birth date and age|1975|04|21}}
p4378
sg10
g17
sg12
VJournalist
p4379
sa(dp4380
g2
VChristine Feehan
p4381
sg4
Vhttps://upload.wikimedia.org/wikipedia/commons/b/b4/Ambox_important.svg
p4382
sg6
V{{URL|http://www.christinefeehan.com/}}
p4383
sg8
g85
sg10
VAmerican
p4384
sg12
VNovelist
p4385
sa(dp4386
g2
VKim Gordon
p4387
sg4
Vhttps://upload.wikimedia.org/wikipedia/en/4/4a/Commons-logo.svg
p4388
sg6
g17
sg8
V{{birth date and age|mf=yes|1953|4|28}}
p4389
sg10
g17
sg12
V{{flatlist| *producer *fashion designer *visual artist }}
p4390
sa(dp4391
g2
VJonathan Safran Foer
p4392
sg4
Vhttps://upload.wikimedia.org/wikipedia/en/4/4a/Commons-logo.svg
p4393
sg6
g85
sg8
V{{birth date and age|1977|2|21}}
p4394
sg10
VAmerican
p4395
sg12
Vnovelist, short story writer
p4396
sa(dp4397
g2
VPatricia Briggs
p4398
sg4
g17
sg6
V{{URL|patriciabriggs.com}}
p4399
sg8
V{{Birth year and age|1965}}
p4400
sg10
VAmerican
p4401
sg12
VNovelist
p4402
sa(dp4403
g2
VRidley Pearson
p4404
sg4
Vhttps://upload.wikimedia.org/wikipedia/en/3/3e/Ridley_Pearson.jpg
p4405
sg6
g17
sg8
V{{Birth date and age|1953|03|13}}
p4406
sg10
g85
sg12
g85
sa(dp4407
g2
VMegan McCafferty
p4408
sg4
Vhttps://upload.wikimedia.org/wikipedia/commons/1/1d/Tom_Sawyer_1876_frontispiece.jpg
p4409
sg6
V{{URL|meganmccafferty.com}}
p4410
sg8
V1973
p4411
sg10
VUnited States
p4412
sg12
VNovelist
p4413
sa(dp4414
g2
VMike Huckabee
p4415
sg4
Vhttps://upload.wikimedia.org/wikipedia/en/4/4a/Commons-logo.svg
p4416
sg6
V{{url|mikehuckabee.com|Official website}}
p4417
sg8
V{{birth date and age|1955|8|24}}
p4418
sg10
g17
sg12
g17
sa(dp4419
g2
VRebecca Skloot
p4420
sg4
Vhttps://upload.wikimedia.org/wikipedia/commons/7/76/Rebecca_Skloot_talks_at_the_University_of_Missouri.jpg
p4421
sg6
V{{URL|www.rebeccaskloot.com}}
p4422
sg8
V{{birth-date and age|September 19, 1972}}
p4423
sg10
g17
sg12
VScience writer
p4424
sa(dp4425
g2
VHampton Sides
p4426
sg4
Vhttps://upload.wikimedia.org/wikipedia/en/9/99/Question_book-new.svg
p4427
sg6
g85
sg8
V1962
p4428
sg10
VAmerican
p4429
sg12
VHistorian/Author/Journalist
p4430
sa(dp4431
g2
VLynsay Sands
p4432
sg4
g17
sg6
V{{URL|http://www.LynsaySands.net/}}
p4433
sg8
g85
sg10
VCanadian
p4434
sg12
VNovelist
p4435
sa(dp4436
g2
VLee Child
p4437
sg4
Vhttps://upload.wikimedia.org/wikipedia/en/4/4a/Commons-logo.svg
p4438
sg6
V{{URL|http://www.leechild.com}}
p4439
sg8
V{{Birth date and age|df=yes|1954|10|29}}
p4440
sg10
VBritish
p4441
sg12
VNovelist, writer, author
p4442
sa(dp4443
g2
VElizabeth Gilbert
p4444
sg4
Vhttps://upload.wikimedia.org/wikipedia/commons/1/1a/Elizabeth_Gilbert_at_TED.jpg
p4445
sg6
V{{URL|Elizabethgilbert.com|ElizabethGilbert.com}}
p4446
sg8
V{{Birth date and age|1969|7|18|mf=y}}
p4447
sg10
VAmerican
p4448
sg12
VNovelist, memoirist
p4449
sa(dp4450
g2
VBrent Weeks
p4451
sg4
g17
sg6
V{{URL|brentweeks.com}}
p4452
sg8
V{{Birth date and age|1977|3|7}}
p4453
sg10
g17
sg12
VWriter
p4454
sa(dp4455
g2
VElizabeth Warren
p4456
sg4
Vhttps://upload.wikimedia.org/wikipedia/en/4/4a/Commons-logo.svg
p4457
sg6
V{{url|warren.senate.gov|Senate website}}, {{url|elizabethwarren.com|Campaign website}}
p4458
sg8
V{{birth date and age|1949|6|22}}
p4459
sg10
g17
sg12
g17
sa(dp4460
g2
VLarry McMurtry
p4461
sg4
g17
sg6
g17
sg8
V{{Birth date and age|1936|6|3}}
p4462
sg10
g17
sg12
VNovelist, screenwriter, essayist
p4463
sa(dp4464
g2
VNate Silver
p4465
sg4
Vhttps://upload.wikimedia.org/wikipedia/en/4/4a/Commons-logo.svg
p4466
sg6
V[http://fivethirtyeight.com/ FiveThirtyEight.com]
p4467
sg8
V{{Birth date and age|1978|1|13}}
p4468
sg10
VAmerican
p4469
sg12
VStatistician, journalist
p4470
sa(dp4471
g2
VPatrick Rothfuss
p4472
sg4
Vhttps://upload.wikimedia.org/wikipedia/commons/1/18/Pat_Rothfuss_Signature.png
p4473
sg6
V{{URL|patrickrothfuss.com}}
p4474
sg8
V{{Birth date and age|1973|06|06}}
p4475
sg10
VAmerican
p4476
sg12
VWriter
p4477
sa(dp4478
g2
VSteve Silberman
p4479
sg4
Vhttps://upload.wikimedia.org/wikipedia/commons/a/a0/Steve_Silberman.jpg
p4480
sg6
g85
sg8
V
p4481
sg10
VAmerican
p4482
sg12
g85
sa(dp4483
g2
VBilly Collins
p4484
sg4
Vhttps://upload.wikimedia.org/wikipedia/en/4/4a/Commons-logo.svg
p4485
sg6
g17
sg8
V{{birth date and age|mf=yes|1941|3|22}}
p4486
sg10
g17
sg12
VProfessor, Poet, Book Author, Anthologist
p4487
sa(dp4488
g2
VCarol Higgins Clark
p4489
sg4
Vhttps://upload.wikimedia.org/wikipedia/commons/a/a1/Belaire_Condominium%2C_12_October_2006.jpg
p4490
sg6
g85
sg8
V{{Birth date and age|1956|07|28}}
p4491
sg10
VAmerican
p4492
sg12
VNovelist
p4493
sa(dp4494
g2
VDan Lyons
p4495
sg4
Vhttps://upload.wikimedia.org/wikipedia/commons/7/71/Paw_%28Animal_Rights_symbol%29.svg
p4496
sg6
V[http://www.sheffield.ac.uk/politics/staff/danlyons Dan Lyons]<br/>University of Sheffield.
p4497
sg8
V
p4498
sg10
g17
sg12
VCEO, Centre for Animals and Social Justice
p4499
sa(dp4500
g2
VIvan Doig
p4501
sg4
Vhttps://upload.wikimedia.org/wikipedia/commons/5/5a/Ivan_Doig_Signature.tif
p4502
sg6
V{{url|http://www.ivandoig.com}}
p4503
sg8
V{{birth date|1939|06|27}}
p4504
sg10
g17
sg12
VAuthor, journalist, novelist
p4505
sa(dp4506
g2
VBill Browder
p4507
sg4
Vhttps://upload.wikimedia.org/wikipedia/commons/7/77/William_F._Browder_-_World_Economic_Forum_Annual_Meeting_2011.jpg
p4508
sg6
g85
sg8
VApril 23, 1964
p4509
sg10
VBritish (formerly US)
p4510
sg12
g85
sa(dp4511
g2
VJulian Barnes
p4512
sg4
g17
sg6
V{{URL|http://www.julianbarnes.com}}
p4513
sg8
V{{Birth date and age|1946|1|19|df=y}}
p4514
sg10
VEnglish
p4515
sg12
VWriter
p4516
sa(dp4517
g2
VPete Townshend
p4518
sg4
Vhttps://upload.wikimedia.org/wikipedia/en/4/4a/Commons-logo.svg
p4519
sg6
V{{URL|thewho.com}}
p4520
sg8
V{{Birth date and age|df=yes|1945|05|19}}
p4521
sg10
g17
sg12
V{{hlist|Musician|singer-songwriter|composer|author}}
p4522
sa(dp4523
g2
VAnita Diamant
p4524
sg4
Vhttps://upload.wikimedia.org/wikipedia/en/9/99/Question_book-new.svg
p4525
sg6
V{{URL|http://www.anitadiamant.com//}}
p4526
sg8
V{{Birth date|1951|06|27|df=y}}
p4527
sg10
VAmerican
p4528
sg12
VWriter
p4529
sa(dp4530
g2
VJames Wesley Rawles
p4531
sg4
Vhttps://upload.wikimedia.org/wikipedia/en/a/a8/Photo_of_James_Wesely%2C_Rawles.jpg
p4532
sg6
Vwww.survivalblog.com
p4533
sg8
V1960
p4534
sg10
g17
sg12
VNovelist, nonfiction author, and blogger
p4535
sa(dp4536
g2
VDanielle Steel
p4537
sg4
Vhttps://upload.wikimedia.org/wikipedia/commons/6/6e/Danielle_steel_signature.svg
p4538
sg6
V{{URL|http://www.daniellesteel.com}}
p4539
sg8
V{{Birth date and age|1947|8|14|mf=y}}
p4540
sg10
VAmerican
p4541
sg12
VNovelist
p4542
sa(dp4543
g2
VNiall Ferguson
p4544
sg4
Vhttps://upload.wikimedia.org/wikipedia/en/4/4a/Commons-logo.svg
p4545
sg6
V{{URL|niallferguson.com|NiallFerguson.com}}
p4546
sg8
V{{Birth date and age|df=yes|1964|4|18}}
p4547
sg10
VBritish
p4548
sg12
g17
sa(dp4549
g2
VKatharine Hepburn
p4550
sg4
Vhttps://upload.wikimedia.org/wikipedia/en/e/e7/Cscr-featured.svg
p4551
sg6
g17
sg8
V{{birth date|1907|5|12}}
p4552
sg10
g17
sg12
VActress
p4553
sa(dp4554
g2
VRay Kurzweil
p4555
sg4
Vhttps://upload.wikimedia.org/wikipedia/en/6/69/P_vip.svg
p4556
sg6
V{{official website}}
p4557
sg8
V{{Birth date and age|1948|2|12|mf=y}}
p4558
sg10
VAmerican
p4559
sg12
VAuthor, entrepreneur, futurist and inventor
p4560
sa(dp4561
g2
VSamantha Shannon
p4562
sg4
Vhttps://upload.wikimedia.org/wikipedia/en/a/ae/Flag_of_the_United_Kingdom.svg
p4563
sg6
g17
sg8
S'{{Birth date and age|1991|11|8}}'
p4564
sg10
S'British'
p4565
sg12
S'Writer'
p4566
sa(dp4567
g2
VBret Easton Ellis
p4568
sg4
Vhttps://upload.wikimedia.org/wikipedia/en/4/4a/Commons-logo.svg
p4569
sg6
V{{URL|http://www.breteastonellis.com}}
p4570
sg8
V{{Birth date and age|1964|3|7}}
p4571
sg10
g17
sg12
VWriter, novelist
p4572
sa(dp4573
g2
VKate Atkinson
p4574
sg4
Vhttps://upload.wikimedia.org/wikipedia/en/6/69/P_vip.svg
p4575
sg6
V{{URL|www.kateatkinson.co.uk}}
p4576
sg8
V{{birth date and age|df=yes|1951|12|20}}
p4577
sg10
g17
sg12
VWriter
p4578
sa(dp4579
g2
VCeleste Ng
p4580
sg4
g17
sg6
V{{URL|http://www.celesteng.com}}
p4581
sg8
g17
sg10
g17
sg12
VNovelist, writer
p4582
sa(dp4583
g2
VArianna Huffington
p4584
sg4
Vhttps://upload.wikimedia.org/wikipedia/en/4/4a/Commons-logo.svg
p4585
sg6
g17
sg8
V{{Birth date and age|1950|7|15|mf=y}}
p4586
sg10
VAmerican, Greek
p4587
sg12
VJournalist, entrepreneur
p4588
sa(dp4589
g2
VAnita Shreve
p4590
sg4
Vhttps://upload.wikimedia.org/wikipedia/commons/b/b4/Ambox_important.svg
p4591
sg6
g85
sg8
V{{birth year and age|1946}}
p4592
sg10
VAmerican
p4593
sg12
VWriter, novelist
p4594
sa(dp4595
g2
VDavid Mamet
p4596
sg4
Vhttps://upload.wikimedia.org/wikipedia/en/4/4a/Commons-logo.svg
p4597
sg6
g85
sg8
V{{birth date and age|1947|11|30}}
p4598
sg10
VUnited States
p4599
sg12
VAuthor, playwright, screenwriter, film director
p4600
sa(dp4601
g2
VDavid Maraniss
p4602
sg4
Vhttps://upload.wikimedia.org/wikipedia/commons/0/06/David_maraniss_2012.jpg
p4603
sg6
S'{{URL|http://davidmaraniss.com/}}'
p4604
sg8
S'1949'
p4605
sg10
g17
sg12
g17
sa(dp4606
g2
VMichael Schulman
p4607
sg4
Vhttps://upload.wikimedia.org/wikipedia/commons/c/c4/Icehockeylayout.svg
p4608
sg6
V
p4609
sg8
V
p4610
sg10
g85
sg12
VChief Executive Officer
p4611
sa(dp4612
g2
VJayne Ann Krentz
p4613
sg4
Vhttps://upload.wikimedia.org/wikipedia/en/1/1e/Jayne_Ann_Krentz_at_RWA_2012.jpg
p4614
sg6
V{{URL|http://www.krentz-quick.com}}
p4615
sg8
V{{birth date and age|1948|03|28|}}
p4616
sg10
VAmerican
p4617
sg12
VNovelist
p4618
sa(dp4619
g2
VGreg Bear
p4620
sg4
Vhttps://upload.wikimedia.org/wikipedia/en/6/69/P_vip.svg
p4621
sg6
V{{URL|http://www.gregbear.com/}}
p4622
sg8
V{{Birth date and age|1951|8|20|mf=y}}
p4623
sg10
g17
sg12
VNovelist
p4624
sa(dp4625
g2
VMax Brooks
p4626
sg4
Vhttps://upload.wikimedia.org/wikipedia/commons/2/24/MaxMelBrooksApr10.jpg
p4627
sg6
g17
sg8
V{{Birth date and age|1972|05|22}}
p4628
sg10
VUnited States
p4629
sg12
VAuthor, writer, screenwriter, actor
p4630
sa(dp4631
g2
VPeggy Noonan
p4632
sg4
Vhttps://upload.wikimedia.org/wikipedia/en/6/69/P_vip.svg
p4633
sg6
g17
sg8
S'{{Birth date and age|1950|09|07}}<ref name="Bothmer2007">{{cite book|last=Bothmer|first=Bernard von|title=Blaming "The Sixties": The Political Use of an Era, 1980--2004|url=http://books.google.com/books?id=6FBBXLrd-IYC&pg=PA126|year=2007|publisher=ProQuest|isbn=978-0-493-87308-4|page=126}}</ref><ref name="Noonan2003">{{cite book|last=Noonan|first=Peggy|title=What I Saw at the Revolution: A Political Life in the Reagan Era|url=http://books.google.com/books?id=Ff8oVIxKcSoC&pg=PA21|year=2003|publisher=Random House Publishing Group|isbn=978-0-8129-6989-4|page=21}}</ref>'
p4634
sg10
S'American'
p4635
sg12
S'Author, columnist, speechwriter'
p4636
sa(dp4637
g2
VBilly Crystal
p4638
sg4
Vhttps://upload.wikimedia.org/wikipedia/commons/2/23/Billy_Crystal_Soap_1977.jpg
p4639
sg6
g17
sg8
V{{birth date and age|1948|3|14}}
p4640
sg10
g17
sg12
VActor, writer, producer, director, comedian, television host
p4641
sa(dp4642
g2
VChristina Lauren
p4643
sg4
Vhttps://upload.wikimedia.org/wikipedia/commons/f/fe/ChristinaLaurenAuthorPhoto.jpeg
p4644
sg6
V{{URL|http://www.christinalaurenbooks.com}}
p4645
sg8
g17
sg10
g17
sg12
Vwriter
p4646
sa(dp4647
g2
VRichard Flanagan
p4648
sg4
Vhttps://upload.wikimedia.org/wikipedia/commons/f/f3/RichardFlanagan_300w.jpg
p4649
sg6
V
p4650
sg8
V{{Birth year and age|1961}}
p4651
sg10
VAustralian
p4652
sg12
g85
sa(dp4653
g2
VSteven Levy
p4654
sg4
Vhttps://upload.wikimedia.org/wikipedia/en/4/4a/Commons-logo.svg
p4655
sg6
S'{{URL|stevenlevy.com}}'
p4656
sg8
S'{{Birth-date and age |1951}}'
p4657
sg10
g17
sg12
S'Author, columnist'
p4658
sa(dp4659
g2
VScott Lynch
p4660
sg4
Vhttps://upload.wikimedia.org/wikipedia/commons/6/6d/Scott_Lynch.jpg
p4661
sg6
V{{URL|scottlynch.us}}
p4662
sg8
V{{Birth date and age|1978|04|02}}
p4663
sg10
VAmerican
p4664
sg12
VNovelist
p4665
sa(dp4666
g2
VOliver Sacks
p4667
sg4
Vhttps://upload.wikimedia.org/wikipedia/en/4/4a/Commons-logo.svg
p4668
sg6
g17
sg8
V{{birth date|df=yes|1933|07|09}}
p4669
sg10
g17
sg12
g17
sa(dp4670
g2
VOliver North
p4671
sg4
Vhttps://upload.wikimedia.org/wikipedia/en/a/a4/Flag_of_the_United_States.svg
p4672
sg6
g17
sg8
V{{birth date and age|1943|10|07||mf=y}}
p4673
sg10
g17
sg12
g17
sa(dp4674
g2
VMary Balogh
p4675
sg4
g17
sg6
V{{url|http://MaryBalogh.com}}
p4676
sg8
V{{Birth date and age|df=yes|1944|03|24}}
p4677
sg10
VWelsh-Canadian
p4678
sg12
VNovelist
p4679
sa.