(lp0
(dp1
S'image_link'
p2
Vhttps://s1.nyt.com/du/books/images/9780316223232.jpg
p3
sS'publisher'
p4
VLittle, Brown and Company
p5
sS'isbn'
p6
V9780316129114
p7
sS'written_by'
p8
VEmma Donoghue
p9
sS'title'
p10
VROOM
p11
sa(dp12
g2
Vhttps://s1.nyt.com/du/books/images/9781459292413.jpg
p13
sg4
VHarlequin Enterprises
p14
sg6
V9781459292413
p15
sg8
VLori Foster
p16
sg10
VFIGHTING DIRTY
p17
sa(dp18
g2
Vhttp://du.ec2.nytimes.com.s3.amazonaws.com/prd/books/9780373779611.jpg
p19
sg4
g14
sg6
V9781460380543
p20
sg8
VLori Foster
p21
sg10
VHOLDING STRONG
p22
sa(dp23
g2
Vhttps://s1.nyt.com/du/books/images/9781460384060.jpg
p24
sg4
g14
sg6
V9781460384060
p25
sg8
VLori Foster
p26
sg10
VTOUGH LOVE
p27
sa(dp28
g2
Vhttps://s1.nyt.com/du/books/images/9781426833595.jpg
p29
sg4
VMira Books
p30
sg6
V9781459247901
p31
sg8
VSusan Wiggs
p32
sg10
VSUMMER AT WILLOW LAKE
p33
sa(dp34
g2
Vhttps://s1.nyt.com/du/books/images/9780307886286.jpg
p35
sg4
VThree Rivers Press
p36
sg6
V9780307886279
p37
sg8
VMindy Kaling
p38
sg10
VIS EVERYONE HANGING OUT WITHOUT ME?
p39
sa(dp40
g2
Vhttps://s1.nyt.com/du/books/images/9780804138154.jpg
p41
sg4
VCrown Publishing Group
p42
sg6
V9780804138147
p43
sg8
VMindy Kaling
p44
sg10
VWHY NOT ME?
p45
sa(dp46
g2
Vhttps://s1.nyt.com/du/books/images/9780062002945.jpg
p47
sg4
VHarperCollins
p48
sg6
V9780062002945
p49
sg8
VJustin Halpern
p50
sg10
V_____MY DAD SAYS
p51
sa(dp52
g2
Vhttps://s1.nyt.com/du/books/images/9780399159893.jpg
p53
sg4
VG. P. Putnam's Sons
p54
sg6
V9781101621219
p55
sg8
VNora Roberts
p56
sg10
VWHISKEY BEACH
p57
sa(dp58
g2
Vhttps://s1.nyt.com/du/books/images/9781101146057.jpg
p59
sg4
VJove Books
p60
sg6
V9781101146057
p61
sg8
VNora Roberts
p62
sg10
VJEWELS OF THE SUN
p63
sa(dp64
g2
Vhttps://s1.nyt.com/du/books/images/9781460342787.jpg
p65
sg4
VHarlequin Enterprises
p66
sg6
V9781460342787
p67
sg8
VNora Roberts
p68
sg10
VNIGHT MOVES
p69
sa(dp70
g2
Vhttps://s1.nyt.com/du/books/images/9781459273702.jpg
p71
sg4
VHarlequin Enterprises
p72
sg6
V9781459295360
p73
sg8
VNora Roberts
p74
sg10
VUNFINISHED BUSINESS
p75
sa(dp76
g2
Vhttps://s1.nyt.com/du/books/images/9781101617281.jpg
p77
sg4
g54
sg6
V9780515154122
p78
sg8
VNora Roberts
p79
sg10
VTHE COLLECTOR
p80
sa(dp81
g2
Vhttps://s1.nyt.com/du/books/images/9780425280102.jpg
p82
sg4
VBerkley Books
p83
sg6
V9780698190733
p84
sg8
VNora Roberts
p85
sg10
VSTARS OF FORTUNE
p86
sa(dp87
g2
Vhttps://s1.nyt.com/du/books/images/9780399175169.jpg
p88
sg4
g83
sg6
V9780698197008
p89
sg8
VNora Roberts
p90
sg10
VTHE OBSESSION
p91
sa(dp92
g2
Vhttps://s1.nyt.com/du/books/images/9781101589182.jpg
p93
sg4
VPenguin Group
p94
sg6
V9781101589182
p95
sg8
VNora Roberts
p96
sg10
VIRISH THOROUGHBRED
p97
sa(dp98
g2
Vhttps://s1.nyt.com/du/books/images/9780515151497.jpg
p99
sg4
g60
sg6
V9781101545782
p100
sg8
VNora Roberts
p101
sg10
VTHE NEXT ALWAYS
p102
sa(dp103
g2
Vhttps://s1.nyt.com/du/books/images/9781101569436.jpg
p104
sg4
g94
sg6
V9781101569436
p105
sg8
VNora Roberts
p106
sg10
VPLAYING THE ODDS
p107
sa(dp108
g2
Vhttps://s1.nyt.com/du/books/images/9781101146286.jpg
p109
sg4
g83
sg6
V9781101146286
p110
sg8
VNora Roberts
p111
sg10
VDANCE UPON THE AIR
p112
sa(dp113
g2
Vhttp://du.ec2.nytimes.com.s3.amazonaws.com/prd/books/9780698161351.jpg
p114
sg4
g54
sg6
V9780698161351
p115
sg8
VNora Roberts
p116
sg10
VTHE LIAR
p117
sa(dp118
g2
Vhttps://s1.nyt.com/du/books/images/9780698190740.jpg
p119
sg4
g83
sg6
V9780698190740
p120
sg8
VNora Roberts
p121
sg10
VBAY OF SIGHS
p122
sa(dp123
g2
Vhttps://s1.nyt.com/du/books/images/9781460390191.jpg
p124
sg4
g30
sg6
V9781460390191
p125
sg8
VSherryl Woods
p126
sg10
VWILLOW BROOK ROAD
p127
sa(dp128
g2
Vhttp://du.ec2.nytimes.com.s3.amazonaws.com/prd/books/9781460345795.jpg
p129
sg4
g30
sg6
V9781460345795
p130
sg8
VSherryl Woods
p131
sg10
VDOGWOOD HILL
p132
sa(dp133
g2
Vhttps://s1.nyt.com/du/books/images/9781451649376.jpg
p134
sg4
VSimon & Schuster
p135
sg6
V9781451649376
p136
sg8
VKate Morton
p137
sg10
VTHE LAKE HOUSE
p138
sa(dp139
g2
Vhttps://s1.nyt.com/du/books/images/9780062039880.jpg
p140
sg4
g48
sg6
V9780062039880
p141
sg8
VLaurence Leamer
p142
sg10
VTHE KENNEDY MEN, 1901-1963
p143
sa(dp144
g2
Vhttps://s1.nyt.com/du/books/images/9781453249451.jpg
p145
sg4
V
p146
sg6
V9781453249451
p147
sg8
VChil Rajchman
p148
sg10
VTHE LAST JEW OF TREBLINKA
p149
sa(dp150
g2
Vhttps://s1.nyt.com/du/books/images/9780525954675.jpg
p151
sg4
VE. P. Dutton
p152
sg6
V9780525954675
p153
sg8
VNick Offerman
p154
sg10
VGUMPTION
p155
sa(dp156
g2
Vhttps://s1.nyt.com/du/books/images/9781501135934.jpg
p157
sg4
VCharles Scribner's Sons
p158
sg6
V9781501135910
p159
sg8
VPhil Knight
p160
sg10
VSHOE DOG
p161
sa(dp162
g2
Vhttps://s1.nyt.com/du/books/images/9781476708713.jpg
p163
sg4
VSimon & Schuster
p164
sg6
V9781476708690
p165
sg8
VWalter Isaacson
p166
sg10
VTHE INNOVATORS
p167
sa(dp168
g2
Vhttps://s1.nyt.com/du/books/images/9781101946978.jpg
p169
sg4
VAlfred A. Knopf
p170
sg6
V9780307266521
p171
sg8
VSimon Sebag Montefiore
p172
sg10
VTHE ROMANOVS
p173
sa(dp174
g2
Vhttps://s1.nyt.com/du/books/images/9780698180741.jpg
p175
sg4
VNew American Library
p176
sg6
V9780698180741
p177
sg8
VJon Cryer
p178
sg10
VSO THAT HAPPENED
p179
sa(dp180
g2
Vhttps://s1.nyt.com/du/books/images/9781466870932.jpg
p181
sg4
VSt. Martin's Press
p182
sg6
V9781466870932
p183
sg8
VNevada Barr
p184
sg10
VBOAR ISLAND
p185
sa(dp186
g2
Vhttps://s1.nyt.com/du/books/images/9781451617832.jpg
p187
sg4
g135
sg6
V9781451617832
p188
sg8
VJennifer Weiner
p189
sg10
VWHO DO YOU LOVE
p190
sa(dp191
g2
Vhttps://s1.nyt.com/du/books/images/9781628720242.jpg
p192
sg4
VArcade Publishing
p193
sg6
V9781628720242
p194
sg8
VMelvyn Bragg
p195
sg10
VTHE ADVENTURE OF ENGLISH
p196
sa(dp197
g2
Vhttps://s1.nyt.com/du/books/images/9780399574337.jpg
p198
sg4
g54
sg6
V9780399574337
p199
sg8
VSteve Hamilton
p200
sg10
VTHE SECOND LIFE OF NICK MASON
p201
sa(dp202
g2
Vhttps://s1.nyt.com/du/books/images/9780698191938.jpg
p203
sg4
g83
sg6
V9780698191938
p204
sg8
VKay Hooper
p205
sg10
VFEAR THE DARK
p206
sa(dp207
g2
Vhttp://du.ec2.nytimes.com.s3.amazonaws.com/prd/books/9781101589809.jpg
p208
sg4
g60
sg6
V9781101589809
p209
sg8
VKay Hooper
p210
sg10
VA DEADLY WEB
p211
sa(dp212
g2
Vhttps://s1.nyt.com/du/books/images/9781420134988.jpg
p213
sg4
g146
sg6
V9781420134988
p214
sg8
VFern Michaels
p215
sg10
VDOUBLE DOWN
p216
sa(dp217
g2
Vhttp://du.ec2.nytimes.com.s3.amazonaws.com/prd/books/9781420133141.jpg
p218
sg4
g146
sg6
V9781420133158
p219
sg8
VFern Michaels
p220
sg10
VFORGET ME NOT
p221
sa(dp222
g2
Vhttps://s1.nyt.com/du/books/images/9781420135930.jpg
p223
sg4
VKensington Books
p224
sg6
V9781420135961
p225
sg8
VFern Michaels
p226
sg10
VPOINT BLANK
p227
sa(dp228
g2
Vhttps://s1.nyt.com/du/books/images/9781420136661.jpg
p229
sg4
g146
sg6
V9781420136661
p230
sg8
VFern Michaels
p231
sg10
VWISHES FOR CHRISTMAS
p232
sa(dp233
g2
Vhttp://du.ec2.nytimes.com.s3.amazonaws.com/prd/books/9781420135947.jpg
p234
sg4
VKensington Books
p235
sg6
V9781420135947
p236
sg8
VFern Michaels
p237
sg10
VEYES ONLY
p238
sa(dp239
g2
Vhttps://s1.nyt.com/du/books/images/9781617734618.jpg
p240
sg4
g224
sg6
V9781617734618
p241
sg8
VFern Michaels
p242
sg10
VNO SAFE SECRET
p243
sa(dp244
g2
Vhttps://s1.nyt.com/du/books/images/9781420135954.jpg
p245
sg4
g146
sg6
V9781420135954
p246
sg8
VFern Michaels
p247
sg10
VIN PLAIN SIGHT
p248
sa(dp249
g2
Vhttp://du.ec2.nytimes.com.s3.amazonaws.com/prd/books/9781101636220.jpg
p250
sg4
VRoc Books
p251
sg6
V9781101636220
p252
sg8
VFaith Hunter
p253
sg10
VDARK HEIR
p254
sa(dp255
g2
Vhttps://s1.nyt.com/du/books/images/9781101884355.jpg
p256
sg4
VBallantine Books
p257
sg6
V9781101884355
p258
sg8
VTess Gerritsen
p259
sg10
VPLAYING WITH FIRE
p260
sa(dp261
g2
Vhttps://s1.nyt.com/du/books/images/9780345449436.jpg
p262
sg4
g257
sg6
V9780345449436
p263
sg8
VTess Gerritsen
p264
sg10
VTHE SURGEON
p265
sa(dp266
g2
Vhttps://s1.nyt.com/du/books/images/9780345549631.jpg
p267
sg4
g257
sg6
V9780345549631
p268
sg8
VTess Gerritsen
p269
sg10
VGIRL MISSING
p270
sa(dp271
g2
Vhttp://du.ec2.nytimes.com.s3.amazonaws.com/prd/books/9780345495303.jpg
p272
sg4
g257
sg6
V9780345495303
p273
sg8
VTess Gerritsen
p274
sg10
VTHE MEPHISTO CLUB
p275
sa(dp276
g2
Vhttp://du.ec2.nytimes.com.s3.amazonaws.com/prd/books/9780345543868.jpg
p277
sg4
g257
sg6
V9780345543868
p278
sg8
VTess Gerritsen
p279
sg10
VDIE AGAIN
p280
sa(dp281
g2
Vhttp://du.ec2.nytimes.com.s3.amazonaws.com/prd/books/9780525954613.jpg
p282
sg4
g152
sg6
V9780698190849
p283
sg8
VJoseph Finder
p284
sg10
VTHE FIXER
p285
sa(dp286
g2
Vhttps://s1.nyt.com/du/books/images/9780525429562.jpg
p287
sg4
VViking Press
p288
sg6
V9780525429562
p289
sg8
VAdam Grant
p290
sg10
VORIGINALS
p291
sa(dp292
g2
Vhttps://s1.nyt.com/du/books/images/9780698190801.jpg
p293
sg4
VE. P. Dutton
p294
sg6
V9780698190801
p295
sg8
VLinda Fairstein
p296
sg10
VDEVIL'S BRIDGE
p297
sa(dp298
g2
Vhttp://du.ec2.nytimes.com.s3.amazonaws.com/prd/books/9781101875056.jpg
p299
sg4
g170
sg6
V9781101875056
p300
sg8
VJudy Blume
p301
sg10
VIN THE UNLIKELY EVENT
p302
sa(dp303
g2
Vhttps://s1.nyt.com/du/books/images/9780679456209.jpg
p304
sg4
VRandom House
p305
sg6
V9780679456209
p306
sg8
VGloria Steinem
p307
sg10
VMY LIFE ON THE ROAD
p308
sa(dp309
g2
Vhttps://s1.nyt.com/du/books/images/9780062262264.jpg
p310
sg4
g48
sg6
V9780062262264
p311
sg8
VNeil Gaiman
p312
sg10
VTHE VIEW FROM THE CHEAP SEATS
p313
sa(dp314
g2
Vhttp://du.ec2.nytimes.com.s3.amazonaws.com/prd/books/9780062330260.jpg
p315
sg4
VWilliam Morrow and Company
p316
sg6
V9780062330260
p317
sg8
VNeil Gaiman
p318
sg10
VTRIGGER WARNING
p319
sa(dp320
g2
Vhttps://s1.nyt.com/du/books/images/9780812996098.jpg
p321
sg4
g305
sg6
V9780812996098
p322
sg8
VAnna Quindlen
p323
sg10
VMILLER'S VALLEY
p324
sa(dp325
g2
Vhttps://s1.nyt.com/du/books/images/9780812998412.jpg
p326
sg4
g305
sg6
V9780812998405
p327
sg8
VJean Stein
p328
sg10
VWEST OF EDEN
p329
sa(dp330
g2
Vhttps://s1.nyt.com/du/books/images/9781501116469.jpg
p331
sg4
g164
sg6
V9781501116445
p332
sg8
VBob Woodward
p333
sg10
VTHE LAST OF THE PRESIDENT'S MEN
p334
sa(dp335
g2
Vhttps://s1.nyt.com/du/books/images/9781466848900.jpg
p336
sg4
VSt. Martin's Press
p337
sg6
V9781466848900
p338
sg8
VJackie Collins
p339
sg10
VTHE SANTANGELOS
p340
sa(dp341
g2
Vhttps://s1.nyt.com/du/books/images/9781501119798.jpg
p342
sg4
g164
sg6
V9781501119798
p343
sg8
VRichard Paul Evans
p344
sg10
VTHE MISTLETOE INN
p345
sa(dp346
g2
Vhttp://du.ec2.nytimes.com.s3.amazonaws.com/prd/books/9780698161214.jpg
p347
sg4
g54
sg6
V9780698161214
p348
sg8
VAce Atkins
p349
sg10
VROBERT B. PARKER'S KICKBACK
p350
sa(dp351
g2
Vhttps://s1.nyt.com/du/books/images/9780399170850.jpg
p352
sg4
g54
sg6
V9780698161245
p353
sg8
VAce Atkins
p354
sg10
VROBERT B. PARKER'S SLOW BURN
p355
sa(dp356
g2
Vhttps://s1.nyt.com/du/books/images/9780345539854.jpg
p357
sg4
VDel Rey Books
p358
sg6
V9780345539854
p359
sg8
VPierce Brown
p360
sg10
VMORNING STAR
p361
sa(dp362
g2
Vhttp://du.ec2.nytimes.com.s3.amazonaws.com/prd/books/9780345539816.jpg
p363
sg4
g358
sg6
V9780345539823
p364
sg8
VPierce Brown
p365
sg10
VGOLDEN SON
p366
sa(dp367
g2
Vhttps://s1.nyt.com/du/books/images/9780374531263.jpg
p368
sg4
VFarrar, Straus and Giroux
p369
sg6
V9780374531263
p370
sg8
VIshmael Beah
p371
sg10
VA LONG WAY GONE
p372
sa(dp373
g2
Vhttp://du.ec2.nytimes.com.s3.amazonaws.com/prd/books/9780698173064.jpg
p374
sg4
g54
sg6
V9780698173064
p375
sg8
VJack Higgins
p376
sg10
VRAIN ON THE DEAD
p377
sa(dp378
g2
Vhttps://s1.nyt.com/du/books/images/9780307496294.jpg
p379
sg4
VThree Rivers Press
p380
sg6
V9780307496294
p381
sg8
VCynthia Lennon
p382
sg10
VJOHN
p383
sa(dp384
g2
Vhttps://s1.nyt.com/du/books/images/9780345538611.jpg
p385
sg4
VBantam Books
p386
sg6
V9780345538611
p387
sg8
VDan Fagin
p388
sg10
VTOMS RIVER
p389
sa(dp390
g2
Vhttps://s1.nyt.com/du/books/images/9780765321879.jpg
p391
sg4
VTor Books
p392
sg6
V9781429949835
p393
sg8
VDavid Weber
p394
sg10
VHELL'S FOUNDATIONS QUIVER
p395
sa(dp396
g2
Vhttps://s1.nyt.com/du/books/images/9781501132605.jpg
p397
sg4
g164
sg6
V9781501132582
p398
sg8
VSteve Case
p399
sg10
VTHE THIRD WAVE
p400
sa(dp401
g2
Vhttps://s1.nyt.com/du/books/images/9780778318781.jpg
p402
sg4
g30
sg6
V9781459294035
p403
sg8
VStephanie Laurens
p404
sg10
VA BUCCANEER AT HEART
p405
sa(dp406
g2
Vhttp://du.ec2.nytimes.com.s3.amazonaws.com/prd/books/9780992278984.jpg
p407
sg4
g30
sg6
V9780992278984
p408
sg8
VStephanie Laurens
p409
sg10
VA MATCH FOR MARCUS CYNSTER
p410
sa(dp411
g2
Vhttps://s1.nyt.com/du/books/images/9780547973180.jpg
p412
sg4
VHoughton Mifflin Harcourt
p413
sg6
V9780547973180
p414
sg8
VAdam Hochschild
p415
sg10
VSPAIN IN OUR HEARTS
p416
sa(dp417
g2
Vhttps://s1.nyt.com/du/books/images/9781250083975.jpg
p418
sg4
VThomas Dunne Books
p419
sg6
V9781250083975
p420
sg8
VAnn Romney
p421
sg10
VIN THIS TOGETHER
p422
sa(dp423
g2
Vhttps://s1.nyt.com/du/books/images/9781501131103.jpg
p424
sg4
g164
sg6
V9781501131103
p425
sg8
VMary Higgins Clark
p426
sg10
VAS TIME GOES BY
p427
sa(dp428
g2
Vhttps://s1.nyt.com/du/books/images/9781476749136.jpg
p429
sg4
g164
sg6
V9781476749136
p430
sg8
VMary Higgins Clark
p431
sg10
VTHE MELODY LINGERS ON
p432
sa(dp433
g2
Vhttps://s1.nyt.com/du/books/images/9780812997583.jpg
p434
sg4
g305
sg6
V9780812997576
p435
sg8
VJudd Apatow
p436
sg10
VSICK IN THE HEAD
p437
sa(dp438
g2
Vhttps://s1.nyt.com/du/books/images/9780374239213.jpg
p439
sg4
g369
sg6
V9780374239213
p440
sg8
VJonathan Franzen
p441
sg10
VPURITY
p442
sa(dp443
g2
Vhttps://s1.nyt.com/du/books/images/9780684808277.jpg
p444
sg4
g164
sg6
V9781476746104
p445
sg8
VCandice Bergen
p446
sg10
VA FINE ROMANCE
p447
sa(dp448
g2
Vhttp://du.ec2.nytimes.com.s3.amazonaws.com/prd/books/9780307387684.jpg
p449
sg4
VRandom House
p450
sg6
V9780307387684
p451
sg8
VLincoln Child
p452
sg10
VDEEP STORM
p453
sa(dp454
g2
Vhttps://s1.nyt.com/du/books/images/9780385531399.jpg
p455
sg4
VRandom House
p456
sg6
V9780385531399
p457
sg8
VLincoln Child
p458
sg10
VTHE THIRD GATE
p459
sa(dp460
g2
Vhttp://du.ec2.nytimes.com.s3.amazonaws.com/prd/books/9780385531412.jpg
p461
sg4
VDoubleday
p462
sg6
V9780385531412
p463
sg8
VLincoln Child
p464
sg10
VTHE FORGOTTEN ROOM
p465
sa(dp466
g2
Vhttps://s1.nyt.com/du/books/images/9780759507913.jpg
p467
sg4
VGrand Central Publishing
p468
sg6
V9780759507913
p469
sg8
VNicholas Sparks
p470
sg10
VTHE WEDDING
p471
sa(dp472
g2
Vhttp://du.ec2.nytimes.com.s3.amazonaws.com/prd/books/9781455520640.jpg
p473
sg4
g468
sg6
V9781455520664
p474
sg8
VNicholas Sparks
p475
sg10
VTHE LONGEST RIDE
p476
sa(dp477
g2
Vhttps://s1.nyt.com/du/books/images/9780446698337.jpg
p478
sg4
g468
sg6
V9781455588985
p479
sg8
VNicholas Sparks
p480
sg10
VTHE CHOICE
p481
sa(dp482
g2
Vhttps://s1.nyt.com/du/books/images/9781455520619.jpg
p483
sg4
g468
sg6
V9781455520619
p484
sg8
VNicholas Sparks
p485
sg10
VSEE ME
p486
sa(dp487
g2
Vhttps://s1.nyt.com/du/books/images/9781250020093.jpg
p488
sg4
g337
sg6
V9781250020093
p489
sg8
VIris Johansen
p490
sg10
VSHADOW PLAY
p491
sa(dp492
g2
Vhttp://du.ec2.nytimes.com.s3.amazonaws.com/prd/books/9781250020086.jpg
p493
sg4
g337
sg6
V9781250020079
p494
sg8
VIris Johansen
p495
sg10
VYOUR NEXT BREATH
p496
sa(dp497
g2
Vhttps://s1.nyt.com/du/books/images/9781466887206.jpg
p498
sg4
VSt. Martin's Press
p499
sg6
V9781466887206
p500
sg8
VIris Johansen
p501
sg10
VHIDE AWAY
p502
sa(dp503
g2
Vhttps://s1.nyt.com/du/books/images/9781101990353.jpg
p504
sg4
VPenguin Group
p505
sg6
V9781101990353
p506
sg8
VAngie Martinez
p507
sg10
VMY VOICE
p508
sa(dp509
g2
Vhttps://s1.nyt.com/du/books/images/9780679645986.jpg
p510
sg4
VSpiegel & Grau
p511
sg6
V9780812993547
p512
sg8
VTa-Nehisi Coates
p513
sg10
VBETWEEN THE WORLD AND ME
p514
sa(dp515
g2
Vhttps://s1.nyt.com/du/books/images/9781250095909.jpg
p516
sg4
VMacmillan Publishers
p517
sg6
V9781250095893
p518
sg8
VCarly Simon
p519
sg10
VBOYS IN THE TREES
p520
sa(dp521
g2
Vhttps://s1.nyt.com/du/books/images/9780062355928.jpg
p522
sg4
VHarper Perennial
p523
sg6
V9780062355928
p524
sg8
VEleanor Roosevelt
p525
sg10
VTHE AUTOBIOGRAPHY OF ELEANOR ROOSEVELT
p526
sa(dp527
g2
Vhttps://s1.nyt.com/du/books/images/9780061959165.jpg
p528
sg4
g48
sg6
V9780061959165
p529
sg8
VFrancine Prose
p530
sg10
VANNE FRANK
p531
sa(dp532
g2
Nsg4
g146
sg6
VA00B014X8XL1Y
p533
sg8
VKendall Ryan
p534
sg10
VMONSTER ________
p535
sa(dp536
g2
Nsg4
g146
sg6
VA00B00UKLMFUC
p537
sg8
VKendall Ryan
p538
sg10
VRECKLESS LOVE
p539
sa(dp540
g2
Vhttps://s1.nyt.com/du/books/images/9780062371836.jpg
p541
sg4
VAvon
p542
sg6
V9780062371836
p543
sg8
VLisa Kleypas
p544
sg10
VCOLD-HEARTED RAKE
p545
sa(dp546
g2
Vhttps://s1.nyt.com/du/books/images/9780062371850.jpg
p547
sg4
VAvon
p548
sg6
V9780062371843
p549
sg8
VLisa Kleypas
p550
sg10
VMARRYING WINTERBORNE
p551
sa(dp552
g2
Vhttp://du.ec2.nytimes.com.s3.amazonaws.com/prd/books/9781476703015.jpg
p553
sg4
VSimon & Schuster
p554
sg6
V9781476703015
p555
sg8
VLisa Jewell
p556
sg10
VTHE HOUSE WE GREW UP IN
p557
sa(dp558
g2
Vhttps://s1.nyt.com/du/books/images/9780718042226.jpg
p559
sg4
VThomas Nelson
p560
sg6
V9780718042226
p561
sg8
VBilly Graham
p562
sg10
VWHERE I AM
p563
sa(dp564
g2
Vhttps://s1.nyt.com/du/books/images/9780061753978.jpg
p565
sg4
g523
sg6
V9780061753978
p566
sg8
VChristopher Hitchens
p567
sg10
VTHOMAS JEFFERSON
p568
sa(dp569
g2
Vhttps://s1.nyt.com/du/books/images/9781476758824.jpg
p570
sg4
VSimon & Schuster
p571
sg6
V9781476758824
p572
sg8
VPhilippa Gregory
p573
sg10
VTHE TAMING OF THE QUEEN
p574
sa(dp575
g2
Vhttp://du.ec2.nytimes.com.s3.amazonaws.com/prd/books/9781416563693.jpg
p576
sg4
g571
sg6
V9781416563914
p577
sg8
VPhilippa Gregory
p578
sg10
VTHE WHITE QUEEN
p579
sa(dp580
g2
Vhttps://s1.nyt.com/du/books/images/9781451659184.jpg
p581
sg4
g164
sg6
V9781451659160
p582
sg8
VRinker Buck
p583
sg10
VTHE OREGON TRAIL
p584
sa(dp585
g2
Vhttps://s1.nyt.com/du/books/images/9780316056892.jpg
p586
sg4
VLittle, Brown and Company
p587
sg6
V9780316175869
p588
sg8
VTina Fey
p589
sg10
VBOSSYPANTS
p590
sa(dp591
g2
Vhttps://s1.nyt.com/du/books/images/9780385539418.jpg
p592
sg4
VDoubleday
p593
sg6
V9780385539418
p594
sg8
VJohn Feinstein
p595
sg10
VTHE LEGENDS CLUB
p596
sa(dp597
g2
Vhttps://s1.nyt.com/du/books/images/9780062277022.jpg
p598
sg4
VHarper
p599
sg6
V9780062277022
p600
sg8
VLouise Erdrich
p601
sg10
VLAROSE
p602
sa(dp603
g2
Vhttps://s1.nyt.com/du/books/images/9780399163845.jpg
p604
sg4
VG. P. Putnam's Sons
p605
sg6
V9781101614341
p606
sg8
VSue Grafton
p607
sg10
VX
p608
sa(dp609
g2
Vhttps://s1.nyt.com/du/books/images/9780385353922.jpg
p610
sg4
g170
sg6
V9780385353922
p611
sg8
VNancy Jo Sales
p612
sg10
VAMERICAN GIRLS
p613
sa(dp614
g2
Vhttps://s1.nyt.com/du/books/images/9781476753652.jpg
p615
sg4
g164
sg6
V9781476753652
p616
sg8
VAlec Ross
p617
sg10
VTHE INDUSTRIES OF THE FUTURE
p618
sa(dp619
g2
Vhttps://s1.nyt.com/du/books/images/9780399161490.jpg
p620
sg4
g54
sg6
V9780698146280
p621
sg8
VRobert Crais
p622
sg10
VTHE PROMISE
p623
sa(dp624
g2
Vhttps://s1.nyt.com/du/books/images/9781621572749.jpg
p625
sg4
VRegnery Publishing
p626
sg6
V9781621572671
p627
sg8
VAnn Coulter
p628
sg10
VADIOS, AMERICA!
p629
sa(dp630
g2
Vhttps://s1.nyt.com/du/books/images/9781451664164.jpg
p631
sg4
g164
sg6
V9781451664164
p632
sg8
VJohn Irving
p633
sg10
VAVENUE OF MYSTERIES
p634
sa(dp635
g2
Vhttp://du.ec2.nytimes.com.s3.amazonaws.com/prd/books/9781476709239.jpg
p636
sg4
g135
sg6
V9781476709239
p637
sg8
VJohn Lescroart
p638
sg10
VTHE FALL
p639
sa(dp640
g2
Vhttps://s1.nyt.com/du/books/images/9781451650044.jpg
p641
sg4
VSimon & Schuster
p642
sg6
V9781451650044
p643
sg8
VKresley Cole
p644
sg10
VSWEET RUIN
p645
sa(dp646
g2
Vhttps://s1.nyt.com/du/books/images/9780997215106.jpg
p647
sg4
VValkyrie Press
p648
sg6
V9780997215106
p649
sg8
VKresley Cole
p650
sg10
VTHE PLAYER
p651
sa(dp652
g2
Vhttp://du.ec2.nytimes.com.s3.amazonaws.com/prd/books/9781451650105.jpg
p653
sg4
g642
sg6
V9781451650105
p654
sg8
VKresley Cole
p655
sg10
VTHE MASTER
p656
sa(dp657
g2
Vhttps://s1.nyt.com/du/books/images/9780062276100.jpg
p658
sg4
VHarperCollins
p659
sg6
V9780062276100
p660
sg8
VBetty DeGeneres
p661
sg10
VLOVE, ELLEN
p662
sa(dp663
g2
Vhttps://s1.nyt.com/du/books/images/9781250077004.jpg
p664
sg4
g517
sg6
V9781250077004
p665
sg8
VJenny Lawson
p666
sg10
VFURIOUSLY HAPPY
p667
sa(dp668
g2
Vhttps://s1.nyt.com/du/books/images/9780544272644.jpg
p669
sg4
g413
sg6
V9780544272996
p670
sg8
VRandall Munroe
p671
sg10
VWHAT IF?
p672
sa(dp673
g2
Vhttps://s1.nyt.com/du/books/images/9781455584901.jpg
p674
sg4
VHachette Book Group
p675
sg6
V9781455584901
p676
sg8
VDana Perino
p677
sg10
VAND THE GOOD NEWS IS ...
p678
sa(dp679
g2
Vhttps://s1.nyt.com/du/books/images/9781476762722.jpg
p680
sg4
g164
sg6
V9781476762722
p681
sg8
VWednesday Martin
p682
sg10
VPRIMATES OF PARK AVENUE
p683
sa(dp684
g2
Vhttps://s1.nyt.com/du/books/images/9781476717159.jpg
p685
sg4
VSimon & Schuster
p686
sg6
V9781476717173
p687
sg8
VBrad Thor
p688
sg10
VCODE OF CONDUCT
p689
sa(dp690
g2
Vhttps://s1.nyt.com/du/books/images/9781476789378.jpg
p691
sg4
g686
sg6
V9781476789378
p692
sg8
VBrad Thor
p693
sg10
VFOREIGN AGENT
p694
sa(dp695
g2
Vhttps://s1.nyt.com/du/books/images/9780525954552.jpg
p696
sg4
g152
sg6
V9780698190832
p697
sg8
VTami Hoag
p698
sg10
VTHE BITTER SEASON
p699
sa(dp700
g2
Vhttp://du.ec2.nytimes.com.s3.amazonaws.com/prd/books/9780698157279.jpg
p701
sg4
g152
sg6
V9780698157279
p702
sg8
VTami Hoag
p703
sg10
VCOLD COLD HEART
p704
sa(dp705
g2
Vhttps://s1.nyt.com/du/books/images/9780812996500.jpg
p706
sg4
g305
sg6
V9780812996500
p707
sg8
VAlan Furst
p708
sg10
VA HERO OF FRANCE
p709
sa(dp710
g2
Vhttps://s1.nyt.com/du/books/images/9780767931250.jpg
p711
sg4
VBroadway Books
p712
sg6
V9780767908962
p713
sg8
VKurt Eichenwald
p714
sg10
VTHE INFORMANT
p715
sa(dp716
g2
Vhttps://s1.nyt.com/du/books/images/9780345544049.jpg
p717
sg4
g386
sg6
V9780345544056
p718
sg8
VKathy Reichs
p719
sg10
VSPEAKING IN BONES
p720
sa(dp721
g2
Vhttps://s1.nyt.com/du/books/images/9780307270641.jpg
p722
sg4
g170
sg6
V9780307270641
p723
sg8
VRichard Russo
p724
sg10
VEVERYBODY'S FOOL
p725
sa(dp726
g2
Vhttps://s1.nyt.com/du/books/images/9781497683853.jpg
p727
sg4
g146
sg6
V9781497683853
p728
sg8
VDoris Kearns Goodwin
p729
sg10
VLYNDON JOHNSON AND THE AMERICAN DREAM
p730
sa(dp731
g2
Vhttps://s1.nyt.com/du/books/images/9780062381644.jpg
p732
sg4
VHarperCollins
p733
sg6
V9780062381637
p734
sg8
VJames Rollins
p735
sg10
VTHE BONE LABYRINTH
p736
sa(dp737
g2
Vhttp://du.ec2.nytimes.com.s3.amazonaws.com/prd/books/9781477875568.jpg
p738
sg4
VHoward Books
p739
sg6
V9781477875568
p740
sg8
VAllison Pataki
p741
sg10
VTHE ACCIDENTAL EMPRESS
p742
sa(dp743
g2
Nsg4
g146
sg6
VA00B016TO0AOG
p744
sg8
VTijan
p745
sg10
VKIAN
p746
sa(dp747
g2
Nsg4
g146
sg6
VA00B01DIE5R3Y
p748
sg8
VTijan
p749
sg10
VLOGAN KADE
p750
sa(dp751
g2
Vhttp://du.ec2.nytimes.com.s3.amazonaws.com/prd/books/9780425263198.jpg
p752
sg4
VAce Books
p753
sg6
V9781101598818
p754
sg8
VCharlaine Harris
p755
sg10
VDAY SHIFT
p756
sa(dp757
g2
Vhttps://s1.nyt.com/du/books/images/9781101598832.jpg
p758
sg4
g753
sg6
V9781101598832
p759
sg8
VCharlaine Harris
p760
sg10
VNIGHT SHIFT
p761
sa(dp762
g2
Vhttp://du.ec2.nytimes.com.s3.amazonaws.com/prd/books/9781594204999.jpg
p763
sg4
VPenguin Group
p764
sg6
V9781594204999
p765
sg8
VPhil Klay
p766
sg10
VREDEPLOYMENT
p767
sa(dp768
g2
Vhttps://s1.nyt.com/du/books/images/9780553392999.jpg
p769
sg4
g257
sg6
V9780553392999
p770
sg8
VAmy Robach
p771
sg10
VBETTER
p772
sa(dp773
g2
Vhttps://s1.nyt.com/du/books/images/9781250109309.jpg
p774
sg4
VSt. Martin's Press
p775
sg6
V9781250109316
p776
sg8
VSylvia Day
p777
sg10
VONE WITH YOU
p778
sa(dp779
g2
Vhttp://du.ec2.nytimes.com.s3.amazonaws.com/prd/books/9780698153462.jpg
p780
sg4
g83
sg6
V9780698153462
p781
sg8
VSylvia Day
p782
sg10
VCAPTIVATED BY YOU
p783
sa(dp784
g2
Vhttps://s1.nyt.com/du/books/images/9780307396181.jpg
p785
sg4
g36
sg6
V9780307405722
p786
sg8
VJohn Elder Robison
p787
sg10
VLOOK ME IN THE EYE
p788
sa(dp789
g2
Vhttps://s1.nyt.com/du/books/images/9781250027948.jpg
p790
sg4
g337
sg6
V9781250027948
p791
sg8
VLisa Scottoline
p792
sg10
VCORRUPTED
p793
sa(dp794
g2
Vhttps://s1.nyt.com/du/books/images/9781250088123.jpg
p795
sg4
g337
sg6
V9781250088123
p796
sg8
VLisa Scottoline
p797
sg10
VMOST WANTED
p798
sa(dp799
g2
Vhttp://du.ec2.nytimes.com.s3.amazonaws.com/prd/books/9781250010117.jpg
p800
sg4
g337
sg6
V9781466874619
p801
sg8
VLisa Scottoline
p802
sg10
VEVERY FIFTEEN MINUTES
p803
sa(dp804
g2
Vhttps://s1.nyt.com/du/books/images/9781250010094.jpg
p805
sg4
g337
sg6
V9781466842045
p806
sg8
VLisa Scottoline
p807
sg10
VKEEP QUIET
p808
sa(dp809
g2
Vhttps://s1.nyt.com/du/books/images/9781250027658.jpg
p810
sg4
g337
sg6
V9781250027665
p811
sg8
VLisa Scottoline
p812
sg10
VACCUSED
p813
sa(dp814
g2
Vhttps://s1.nyt.com/du/books/images/9780061797767.jpg
p815
sg4
g48
sg6
V9780061797767
p816
sg8
VLisa Scottoline
p817
sg10
VDADDY'S GIRL
p818
sa(dp819
g2
Vhttp://du.ec2.nytimes.com.s3.amazonaws.com/prd/books/9781476746586.jpg
p820
sg4
g158
sg6
V9781476746609
p821
sg8
VAnthony Doerr
p822
sg10
VALL THE LIGHT WE CANNOT SEE
p823
sa(dp824
g2
Vhttps://s1.nyt.com/du/books/images/9780062429063.jpg
p825
sg4
g733
sg6
V9780062429063
p826
sg8
VKarin Slaughter
p827
sg10
VPRETTY GIRLS
p828
sa(dp829
g2
Vhttps://s1.nyt.com/du/books/images/9780812998207.jpg
p830
sg4
g305
sg6
V9781400067657
p831
sg8
VJon Meacham
p832
sg10
VDESTINY AND POWER
p833
sa(dp834
g2
Vhttps://s1.nyt.com/du/books/images/9781451635133.jpg
p835
sg4
g164
sg6
V9781451635133
p836
sg8
VRichard Engel
p837
sg10
VAND THEN ALL HELL BROKE LOOSE
p838
sa(dp839
g2
Vhttps://s1.nyt.com/du/books/images/9780061867460.jpg
p840
sg4
g48
sg6
V9780061867460
p841
sg8
VCokie Roberts
p842
sg10
VFOUNDING MOTHERS
p843
sa(dp844
g2
Vhttps://s1.nyt.com/du/books/images/9780062002761.jpg
p845
sg4
VHarper
p846
sg6
V9780062002761
p847
sg8
VCokie Roberts
p848
sg10
VCAPITAL DAMES
p849
sa(dp850
g2
Vhttps://s1.nyt.com/du/books/images/9780385354288.jpg
p851
sg4
g170
sg6
V9780385354295
p852
sg8
VDavid Lagercrantz
p853
sg10
VTHE GIRL IN THE SPIDER'S WEB
p854
sa(dp855
g2
Vhttps://s1.nyt.com/du/books/images/9780062349033.jpg
p856
sg4
VAvon
p857
sg6
V9780062349033
p858
sg8
VTessa Dare
p859
sg10
VWHEN A SCOT TIES THE KNOT
p860
sa(dp861
g2
Vhttps://s1.nyt.com/du/books/images/9780062218841.jpg
p862
sg4
g733
sg6
V9780062218841
p863
sg8
VRegina Calcaterra
p864
sg10
VETCHED IN SAND
p865
sa(dp866
g2
Vhttps://s1.nyt.com/du/books/images/9781453203927.jpg
p867
sg4
g146
sg6
V9781453203927
p868
sg8
VPat Conroy
p869
sg10
VTHE WATER IS WIDE
p870
sa(dp871
g2
Vhttps://s1.nyt.com/du/books/images/9780062409850.jpg
p872
sg4
VHarper
p873
sg6
V9780062409850
p874
sg8
VHarper Lee
p875
sg10
VGO SET A WATCHMAN
p876
sa(dp877
g2
Vhttps://s1.nyt.com/du/books/images/9780345534194.jpg
p878
sg4
g257
sg6
V9780345534194
p879
sg8
VPaula McLain
p880
sg10
VCIRCLING THE SUN
p881
sa(dp882
g2
Vhttps://s1.nyt.com/du/books/images/9781476728742.jpg
p883
sg4
g164
sg6
V9781476728742
p884
sg8
VDavid McCullough
p885
sg10
VTHE WRIGHT BROTHERS
p886
sa(dp887
g2
Vhttps://s1.nyt.com/du/books/images/9781501117718.jpg
p888
sg4
VSimon & Schuster
p889
sg6
V9781501117695
p890
sg8
VTyler Oakley
p891
sg10
VBINGE
p892
sa(dp893
g2
Vhttp://du.ec2.nytimes.com.s3.amazonaws.com/prd/books/9781455517169.jpg
p894
sg4
g468
sg6
V9781455517169
p895
sg8
VJeffery Deaver
p896
sg10
VSOLITUDE CREEK
p897
sa(dp898
g2
Vhttps://s1.nyt.com/du/books/images/9781455536368.jpg
p899
sg4
g468
sg6
V9781455536368
p900
sg8
VJeffery Deaver
p901
sg10
VTHE STEEL KISS
p902
sa(dp903
g2
Vhttps://s1.nyt.com/du/books/images/9780399573910.jpg
p904
sg4
g54
sg6
V9780399573934
p905
sg8
VStuart Woods
p906
sg10
VDISHONORABLE INTENTIONS
p907
sa(dp908
g2
Vhttp://du.ec2.nytimes.com.s3.amazonaws.com/prd/books/9780698154155.jpg
p909
sg4
g54
sg6
V9780698154155
p910
sg8
VStuart Woods
p911
sg10
VINSATIABLE APPETITES
p912
sa(dp913
g2
Vhttps://s1.nyt.com/du/books/images/9780399174698.jpg
p914
sg4
g54
sg6
V9780698195073
p915
sg8
VStuart Woods
p916
sg10
VFAMILY JEWELS
p917
sa(dp918
g2
Vhttps://s1.nyt.com/du/books/images/9781101664247.jpg
p919
sg4
g54
sg6
V9781101664247
p920
sg8
VStuart Woods
p921
sg10
VNAKED GREED
p922
sa(dp923
g2
Vhttp://du.ec2.nytimes.com.s3.amazonaws.com/prd/books/9780698154162.jpg
p924
sg4
g54
sg6
V9780698154162
p925
sg8
VStuart Woods
p926
sg10
VHOT PURSUIT
p927
sa(dp928
g2
Vhttps://s1.nyt.com/du/books/images/9780399174674.jpg
p929
sg4
g54
sg6
V9780698195028
p930
sg8
VStuart Woods
p931
sg10
VFOREIGN AFFAIRS
p932
sa(dp933
g2
Vhttps://s1.nyt.com/du/books/images/9780399174681.jpg
p934
sg4
g54
sg6
V9780698195059
p935
sg8
VStuart Woods
p936
sg10
VSCANDALOUS BEHAVIOR
p937
sa(dp938
g2
Vhttps://s1.nyt.com/du/books/images/9780062333957.jpg
p939
sg4
VHarper
p940
sg6
V9780062333933
p941
sg8
VAyaan Hirsi Ali
p942
sg10
VHERETIC
p943
sa(dp944
g2
Vhttps://s1.nyt.com/du/books/images/9780812997613.jpg
p945
sg4
g305
sg6
V9780812997613
p946
sg8
VCurtis Sittenfeld
p947
sg10
VELIGIBLE
p948
sa(dp949
g2
Vhttps://s1.nyt.com/du/books/images/9781484724941.jpg
p950
sg4
VDisney Publishing Worldwide
p951
sg6
V9781484724941
p952
sg8
VRichard Castle
p953
sg10
VDRIVING HEAT
p954
sa(dp955
g2
Vhttps://s1.nyt.com/du/books/images/9781401324810.jpg
p956
sg4
g951
sg6
V9781484720349
p957
sg8
VRichard Castle
p958
sg10
VRAGING HEAT
p959
sa(dp960
g2
Vhttps://s1.nyt.com/du/books/images/9780802198754.jpg
p961
sg4
VGrove Atlantic
p962
sg6
V9780802198754
p963
sg8
VAlison Weir
p964
sg10
VTHE SIX WIVES OF HENRY VIII
p965
sa(dp966
g2
Vhttps://s1.nyt.com/du/books/images/9780345521415.jpg
p967
sg4
g257
sg6
V9780345521415
p968
sg8
VAlison Weir
p969
sg10
VTHE LOST TUDOR PRINCESS
p970
sa(dp971
g2
Vhttps://s1.nyt.com/du/books/images/9781594486630.jpg
p972
sg4
VRiverhead Books
p973
sg6
V9781594486630
p974
sg8
VCarrie Brownstein
p975
sg10
VHUNGER MAKES ME A MODERN GIRL
p976
sa(dp977
g2
Vhttp://du.ec2.nytimes.com.s3.amazonaws.com/prd/books/9781250019837.jpg
p978
sg4
g337
sg6
V9781250019844
p979
sg8
VSarah Addison Allen
p980
sg10
VFIRST FROST
p981
sa(dp982
g2
Vhttps://s1.nyt.com/du/books/images/9780553385595.jpg
p983
sg4
g386
sg6
V9780553906547
p984
sg8
VSarah Addison Allen
p985
sg10
VTHE GIRL WHO CHASED THE MOON
p986
sa(dp987
g2
Vhttps://s1.nyt.com/du/books/images/9781101882528.jpg
p988
sg4
VDell Publishing
p989
sg6
V9781101882528
p990
sg8
VDiana Gabaldon
p991
sg10
VVIRGINS
p992
sa(dp993
g2
Vhttp://du.ec2.nytimes.com.s3.amazonaws.com/prd/books/9780440212560.jpg
p994
sg4
g989
sg6
V9780440335160
p995
sg8
VDiana Gabaldon
p996
sg10
VOUTLANDER
p997
sa(dp998
g2
Vhttp://du.ec2.nytimes.com.s3.amazonaws.com/prd/books/9780062311146.jpg
p999
sg4
g733
sg6
V9780062311146
p1000
sg8
VGreg Iles
p1001
sg10
VTHE BONE TREE
p1002
sa(dp1003
g2
Vhttps://s1.nyt.com/du/books/images/9780062419002.jpg
p1004
sg4
g316
sg6
V9780062419002
p1005
sg8
VLinda Howard
p1006
sg10
VTROUBLEMAKER
p1007
sa(dp1008
g2
Vhttps://s1.nyt.com/du/books/images/9780062422262.jpg
p1009
sg4
VAvon
p1010
sg6
V9780062422262
p1011
sg8
VLinda Howard
p1012
sg10
VHEARTBREAKER
p1013
sa(dp1014
g2
Vhttps://s1.nyt.com/du/books/images/9781250022097.jpg
p1015
sg4
g182
sg6
V9781250022097
p1016
sg8
VLouise Penny
p1017
sg10
VTHE NATURE OF THE BEAST
p1018
sa(dp1019
g2
Vhttps://s1.nyt.com/du/books/images/9781455561803.jpg
p1020
sg4
g468
sg6
V9781455561803
p1021
sg8
VNoah Hawley
p1022
sg10
VBEFORE THE FALL
p1023
sa(dp1024
g2
Vhttps://s1.nyt.com/du/books/images/9781101624012.jpg
p1025
sg4
g973
sg6
V9781594631740
p1026
sg8
VSarah Vowell
p1027
sg10
VLAFAYETTE IN THE SOMEWHAT UNITED STATES
p1028
sa(dp1029
g2
Vhttps://s1.nyt.com/du/books/images/9780385538909.jpg
p1030
sg4
VDoubleday
p1031
sg6
V9780385538909
p1032
sg8
VChris Bohjalian
p1033
sg10
VTHE GUEST ROOM
p1034
sa(dp1035
g2
Vhttps://s1.nyt.com/du/books/images/9780062301260.jpg
p1036
sg4
VEcco Press
p1037
sg6
V9780062301239
p1038
sg8
VAshlee Vance
p1039
sg10
VELON MUSK
p1040
sa(dp1041
g2
Vhttps://s1.nyt.com/du/books/images/9781101903834.jpg
p1042
sg4
g42
sg6
V9781101903827
p1043
sg8
VMelissa Rivers
p1044
sg10
VTHE BOOK OF JOAN
p1045
sa(dp1046
g2
Vhttps://s1.nyt.com/du/books/images/9781101885253.jpg
p1047
sg4
g358
sg6
V9780345511362
p1048
sg8
VClaudia Gray
p1049
sg10
VSTAR WARS: BLOODLINE
p1050
sa(dp1051
g2
Vhttps://s1.nyt.com/du/books/images/9780553447446.jpg
p1052
sg4
VCrown Publishing Group
p1053
sg6
V9780553447439
p1054
sg8
VMatthew Desmond
p1055
sg10
VEVICTED
p1056
sa(dp1057
g2
Vhttps://s1.nyt.com/du/books/images/9780062325426.jpg
p1058
sg4
g733
sg6
V9780062325426
p1059
sg8
VPatricia Cornwell
p1060
sg10
VDEPRAVED HEART
p1061
sa(dp1062
g2
Vhttp://du.ec2.nytimes.com.s3.amazonaws.com/prd/books/9780062325365.jpg
p1063
sg4
g733
sg6
V9780062325341
p1064
sg8
VPatricia Cornwell
p1065
sg10
VFLESH AND BLOOD
p1066
sa(dp1067
g2
Vhttps://s1.nyt.com/du/books/images/9781455532704.jpg
p1068
sg4
g468
sg6
V9781455532704
p1069
sg8
VFrank Bruni
p1070
sg10
VWHERE YOU GO IS NOT WHO YOU'LL BE
p1071
sa(dp1072
g2
Vhttps://s1.nyt.com/du/books/images/9780316017930.jpg
p1073
sg4
g5
sg6
V9780316017930
p1074
sg8
VMalcolm Gladwell
p1075
sg10
VOUTLIERS
p1076
sa(dp1077
g2
Vhttps://s1.nyt.com/du/books/images/9780316204361.jpg
p1078
sg4
g5
sg6
V9780316204378
p1079
sg8
VMalcolm Gladwell
p1080
sg10
VDAVID AND GOLIATH
p1081
sa(dp1082
g2
Vhttp://du.ec2.nytimes.com.s3.amazonaws.com/prd/books/9780307594174.jpg
p1083
sg4
g170
sg6
V9780307594174
p1084
sg8
VToni Morrison
p1085
sg10
VGOD HELP THE CHILD
p1086
sa(dp1087
g2
Vhttps://s1.nyt.com/du/books/images/9780385530262.jpg
p1088
sg4
g511
sg6
V9780385523394
p1089
sg8
VPiper Kerman
p1090
sg10
VORANGE IS THE NEW BLACK
p1091
sa(dp1092
g2
Vhttp://du.ec2.nytimes.com.s3.amazonaws.com/prd/books/9780385523233.jpg
p1093
sg4
g511
sg6
V9780812997897
p1094
sg8
VSara Gruen
p1095
sg10
VAT THE WATER'S EDGE
p1096
sa(dp1097
g2
Vhttps://s1.nyt.com/du/books/images/9780307353757.jpg
p1098
sg4
g42
sg6
V9780307462534
p1099
sg8
VShawn Levy
p1100
sg10
VPAUL NEWMAN
p1101
sa(dp1102
g2
Vhttps://s1.nyt.com/du/books/images/9781460391891.jpg
p1103
sg4
g14
sg6
V9781460391891
p1104
sg8
VKristan Higgins
p1105
sg10
VANYTHING FOR YOU
p1106
sa(dp1107
g2
Vhttps://s1.nyt.com/du/books/images/9780062388155.jpg
p1108
sg4
VAvon
p1109
sg6
V9780062388155
p1110
sg8
VJulia Quinn
p1111
sg10
VBECAUSE OF MISS BRIDGERTON
p1112
sa(dp1113
g2
Vhttp://du.ec2.nytimes.com.s3.amazonaws.com/prd/books/9780062072955.jpg
p1114
sg4
VHarperCollins
p1115
sg6
V9780062072955
p1116
sg8
VJulia Quinn
p1117
sg10
VTHE SECRETS OF SIR RICHARD KENWORTHY
p1118
sa(dp1119
g2
Vhttps://s1.nyt.com/du/books/images/9781459294141.jpg
p1120
sg4
g30
sg6
V9781459294141
p1121
sg8
VHeather Graham
p1122
sg10
VHAUNTED DESTINY
p1123
sa(dp1124
g2
Vhttps://s1.nyt.com/du/books/images/9781460390207.jpg
p1125
sg4
g30
sg6
V9781460390207
p1126
sg8
VHeather Graham
p1127
sg10
VTHE HIDDEN
p1128
sa(dp1129
g2
Vhttps://s1.nyt.com/du/books/images/9781460382271.jpg
p1130
sg4
g30
sg6
V9781460382271
p1131
sg8
VHeather Graham
p1132
sg10
VTHE FORGOTTEN
p1133
sa(dp1134
g2
Vhttps://s1.nyt.com/du/books/images/9780698155633.jpg
p1135
sg4
g54
sg6
V9780698155633
p1136
sg8
VReed Farrel Coleman
p1137
sg10
VROBERT B. PARKER'S THE DEVIL WINS
p1138
sa(dp1139
g2
Vhttps://s1.nyt.com/du/books/images/9780307829160.jpg
p1140
sg4
g305
sg6
V9780307829160
p1141
sg8
VJeffrey Toobin
p1142
sg10
VTHE RUN OF HIS LIFE
p1143
sa(dp1144
g2
Vhttp://du.ec2.nytimes.com.s3.amazonaws.com/prd/books/9780345541802.jpg
p1145
sg4
g257
sg6
V9780345541802
p1146
sg8
VJude Deveraux
p1147
sg10
VTRUE LOVE
p1148
sa(dp1149
g2
Vhttps://s1.nyt.com/du/books/images/9780345541864.jpg
p1150
sg4
g257
sg6
V9780345541864
p1151
sg8
VJude Deveraux
p1152
sg10
VEVER AFTER
p1153
sa(dp1154
g2
Vhttps://s1.nyt.com/du/books/images/9780525955054.jpg
p1155
sg4
g152
sg6
V9780698404151
p1156
sg8
VClinton Romesha
p1157
sg10
VRED PLATOON
p1158
sa(dp1159
g2
Vhttp://du.ec2.nytimes.com.s3.amazonaws.com/prd/books/9781476776101.jpg
p1160
sg4
g135
sg6
V9781476776101
p1161
sg8
VAbbi Glines
p1162
sg10
VWHEN I'M GONE
p1163
sa(dp1164
g2
Vhttp://du.ec2.nytimes.com.s3.amazonaws.com/prd/books/9780440339816.jpg
p1165
sg4
VDell Publishing
p1166
sg6
V9780440339816
p1167
sg8
VKaren Marie Moning
p1168
sg10
VBURNED
p1169
sa(dp1170
g2
Vhttps://s1.nyt.com/du/books/images/9780440339823.jpg
p1171
sg4
g1166
sg6
V9780440339823
p1172
sg8
VKaren Marie Moning
p1173
sg10
VFEVERBORN
p1174
sa(dp1175
g2
Vhttps://s1.nyt.com/du/books/images/9780385541923.jpg
p1176
sg4
VDoubleday
p1177
sg6
V9780385541923
p1178
sg8
VJohn Grisham
p1179
sg10
VPARTNERS
p1180
sa(dp1181
g2
Vhttp://du.ec2.nytimes.com.s3.amazonaws.com/prd/books/9780385537148.jpg
p1182
sg4
VDoubleday
p1183
sg6
V9780385537148
p1184
sg8
VJohn Grisham
p1185
sg10
VGRAY MOUNTAIN
p1186
sa(dp1187
g2
Vhttps://s1.nyt.com/du/books/images/9780385539449.jpg
p1188
sg4
VDoubleday
p1189
sg6
V9780385539449
p1190
sg8
VJohn Grisham
p1191
sg10
VROGUE LAWYER
p1192
sa(dp1193
g2
Vhttps://s1.nyt.com/du/books/images/9781501104817.jpg
p1194
sg4
g135
sg6
V9781501104831
p1195
sg8
VChiquis Rivera
p1196
sg10
VFORGIVENESS
p1197
sa(dp1198
g2
Vhttps://s1.nyt.com/du/books/images/9780316334310.jpg
p1199
sg4
g5
sg6
V9780316334310
p1200
sg8
VKate Mulgrew
p1201
sg10
VBORN WITH TEETH
p1202
sa(dp1203
g2
Vhttps://s1.nyt.com/du/books/images/9781501111129.jpg
p1204
sg4
g158
sg6
V9781501111105
p1205
sg8
VAngela Duckworth
p1206
sg10
VGRIT
p1207
sa(dp1208
g2
Vhttps://s1.nyt.com/du/books/images/9780062316097.jpg
p1209
sg4
VHarper
p1210
sg6
V9780062316097
p1211
sg8
VYuval Noah Harari
p1212
sg10
VSAPIENS
p1213
sa(dp1214
g2
Vhttp://du.ec2.nytimes.com.s3.amazonaws.com/prd/books/9780307271037.jpg
p1215
sg4
g170
sg6
V9780307271037
p1216
sg8
VKazuo Ishiguro
p1217
sg10
VTHE BURIED GIANT
p1218
sa(dp1219
g2
Vhttps://s1.nyt.com/du/books/images/9780393244816.jpg
p1220
sg4
VSimon & Schuster
p1221
sg6
V9780393244816
p1222
sg8
VBruce Schneier
p1223
sg10
VDATA AND GOLIATH
p1224
sa(dp1225
g2
Vhttps://s1.nyt.com/du/books/images/9781250101198.jpg
p1226
sg4
VPicador
p1227
sg6
V9781250072689
p1228
sg8
VMichael Punke
p1229
sg10
VTHE REVENANT
p1230
sa(dp1231
g2
Vhttps://s1.nyt.com/du/books/images/9780307950390.jpg
p1232
sg4
g146
sg6
V9781101910085
p1233
sg8
VLisa See
p1234
sg10
VON GOLD MOUNTAIN
p1235
sa(dp1236
g2
Vhttps://s1.nyt.com/du/books/images/9780062365637.jpg
p1237
sg4
VHarperCollins
p1238
sg6
V9780062365613
p1239
sg8
VTed Cruz
p1240
sg10
VA TIME FOR TRUTH
p1241
sa(dp1242
g2
Vhttps://s1.nyt.com/du/books/images/9780553380163.jpg
p1243
sg4
g386
sg6
V9780553380163
p1244
sg8
VStephen Hawking
p1245
sg10
VA BRIEF HISTORY OF TIME
p1246
sa(dp1247
g2
Vhttps://s1.nyt.com/du/books/images/9780307885937.jpg
p1248
sg4
g712
sg6
V9780307885937
p1249
sg8
VFrances Mayes
p1250
sg10
VUNDER MAGNOLIA
p1251
sa(dp1252
g2
Vhttps://s1.nyt.com/du/books/images/9780767917452.jpg
p1253
sg4
g712
sg6
V9780767917452
p1254
sg8
VFrances Mayes
p1255
sg10
VUNDER THE TUSCAN SUN
p1256
sa(dp1257
g2
Vhttps://s1.nyt.com/du/books/images/9780062319210.jpg
p1258
sg4
VHarper
p1259
sg6
V9780062319210
p1260
sg8
VAdriana Trigiani
p1261
sg10
VALL THE STARS IN THE HEAVENS
p1262
sa(dp1263
g2
Vhttp://du.ec2.nytimes.com.s3.amazonaws.com/prd/books/9781594633669.jpg
p1264
sg4
g973
sg6
V9780698185395
p1265
sg8
VPaula Hawkins
p1266
sg10
VTHE GIRL ON THE TRAIN
p1267
sa(dp1268
g2
Vhttps://s1.nyt.com/du/books/images/9780062092915.jpg
p1269
sg4
VHarper
p1270
sg6
V9780062092915
p1271
sg8
VKaren Abbott
p1272
sg10
VLIAR, TEMPTRESS, SOLDIER, SPY
p1273
sa(dp1274
g2
Vhttps://s1.nyt.com/du/books/images/9781616203214.jpg
p1275
sg4
VWorkman Publishing Company
p1276
sg6
V9781616203948
p1277
sg8
VGabrielle Zevin
p1278
sg10
VTHE STORIED LIFE OF A. J. FIKRY
p1279
sa(dp1280
g2
Vhttps://s1.nyt.com/du/books/images/9780062268341.jpg
p1281
sg4
VHarperCollins
p1282
sg6
V9780062268341
p1283
sg8
VAmy Poehler
p1284
sg10
VYES PLEASE
p1285
sa(dp1286
g2
Vhttp://du.ec2.nytimes.com.s3.amazonaws.com/prd/books/9780062200303.jpg
p1287
sg4
g316
sg6
V9780062200303
p1288
sg8
VDennis Lehane
p1289
sg10
VWORLD GONE BY
p1290
sa(dp1291
g2
Vhttps://s1.nyt.com/du/books/images/9781453206362.jpg
p1292
sg4
g146
sg6
V9781453206362
p1293
sg8
VAlice Hoffman
p1294
sg10
VSEVENTH HEAVEN
p1295
sa(dp1296
g2
Vhttps://s1.nyt.com/du/books/images/9781451693614.jpg
p1297
sg4
g164
sg6
V9781451693614
p1298
sg8
VAlice Hoffman
p1299
sg10
VTHE MARRIAGE OF OPPOSITES
p1300
sa(dp1301
g2
Vhttps://s1.nyt.com/du/books/images/9780062202628.jpg
p1302
sg4
g1037
sg6
V9780062202611
p1303
sg8
VPadma Lakshmi
p1304
sg10
VLOVE, LOSS, AND WHAT WE ATE
p1305
sa(dp1306
g2
Vhttps://s1.nyt.com/du/books/images/9780761184232.jpg
p1307
sg4
VWorkman Publishing Company
p1308
sg6
V9780761184232
p1309
sg8
VAlexandra Robbins
p1310
sg10
VTHE NURSES
p1311
sa(dp1312
g2
Vhttps://s1.nyt.com/du/books/images/9780307452207.jpg
p1313
sg4
g1053
sg6
V9780307452207
p1314
sg8
VSusan Cain
p1315
sg10
VQUIET
p1316
sa(dp1317
g2
Vhttps://s1.nyt.com/du/books/images/9780698189744.jpg
p1318
sg4
g973
sg6
V9781594486296
p1319
sg8
VAnne Lamott
p1320
sg10
VSMALL VICTORIES
p1321
sa(dp1322
g2
Vhttps://s1.nyt.com/du/books/images/9781101874943.jpg
p1323
sg4
g170
sg6
V9781101874936
p1324
sg8
VHope Jahren
p1325
sg10
VLAB GIRL
p1326
sa(dp1327
g2
Vhttp://du.ec2.nytimes.com.s3.amazonaws.com/prd/books/9780698138636.jpg
p1328
sg4
VG. P. Putnam's Sons
p1329
sg6
V9780698138636
p1330
sg8
VLiane Moriarty
p1331
sg10
VBIG LITTLE LIES
p1332
sa(dp1333
g2
Vhttps://s1.nyt.com/du/books/images/9780062008671.jpg
p1334
sg4
g523
sg6
V9780062008671
p1335
sg8
VLiane Moriarty
p1336
sg10
VTHE LAST ANNIVERSARY
p1337
sa(dp1338
g2
Vhttp://du.ec2.nytimes.com.s3.amazonaws.com/prd/books/9781101636237.jpg
p1339
sg4
g1329
sg6
V9781101636237
p1340
sg8
VLiane Moriarty
p1341
sg10
VTHE HUSBAND'S SECRET
p1342
sa(dp1343
g2
Vhttps://s1.nyt.com/du/books/images/9781101967805.jpg
p1344
sg4
g257
sg6
V9781101967805
p1345
sg8
VMalcolm X
p1346
sg10
VAUTOBIOGRAPHY OF MALCOLM X
p1347
sa(dp1348
g2
Vhttps://s1.nyt.com/du/books/images/9780743288781.jpg
p1349
sg4
g158
sg6
V9780743288781
p1350
sg8
VAnnie Proulx
p1351
sg10
VBARKSKINS
p1352
sa(dp1353
g2
Vhttp://du.ec2.nytimes.com.s3.amazonaws.com/prd/books/9780307460202.jpg
p1354
sg4
g712
sg6
V9780307460202
p1355
sg8
VSarah McCoy
p1356
sg10
VTHE BAKER'S DAUGHTER
p1357
sa(dp1358
g2
Vhttp://du.ec2.nytimes.com.s3.amazonaws.com/prd/books/9781439102817.jpg
p1359
sg4
VPocket Books
p1360
sg6
V9781439157039
p1361
sg8
VLisa Genova
p1362
sg10
VSTILL ALICE
p1363
sa(dp1364
g2
Vhttps://s1.nyt.com/du/books/images/9780812994520.jpg
p1365
sg4
g511
sg6
V9780812984965
p1366
sg8
VBryan Stevenson
p1367
sg10
VJUST MERCY
p1368
sa(dp1369
g2
Vhttps://s1.nyt.com/du/books/images/9781555846046.jpg
p1370
sg4
VGrove Atlantic
p1371
sg6
V9781555846046
p1372
sg8
VMark Bowden
p1373
sg10
VBLACK HAWK DOWN
p1374
sa(dp1375
g2
Vhttps://s1.nyt.com/du/books/images/9780698405127.jpg
p1376
sg4
g973
sg6
V9780698405127
p1377
sg8
VLauren Groff
p1378
sg10
VFATES AND FURIES
p1379
sa(dp1380
g2
Vhttp://du.ec2.nytimes.com.s3.amazonaws.com/prd/books/9780446580854.jpg
p1381
sg4
g468
sg6
V9781455582310
p1382
sg8
VNelson DeMille
p1383
sg10
VRADIANT ANGEL
p1384
sa(dp1385
g2
Vhttps://s1.nyt.com/du/books/images/9781455533763.jpg
p1386
sg4
g675
sg6
V9781455533763
p1387
sg8
VDavid Brock
p1388
sg10
VKILLING THE MESSENGER
p1389
sa(dp1390
g2
Vhttps://s1.nyt.com/du/books/images/9780316247764.jpg
p1391
sg4
g5
sg6
V9780316247764
p1392
sg8
VSally Mann
p1393
sg10
VHOLD STILL
p1394
sa(dp1395
g2
Vhttp://du.ec2.nytimes.com.s3.amazonaws.com/prd/books/9780061122415.jpg
p1396
sg4
g48
sg6
V9780061122415
p1397
sg8
VPaulo Coelho
p1398
sg10
VTHE ALCHEMIST
p1399
sa(dp1400
g2
Vhttps://s1.nyt.com/du/books/images/9780393247688.jpg
p1401
sg4
g1221
sg6
V9780393247688
p1402
sg8
VFareed Zakaria
p1403
sg10
VIN DEFENSE OF A LIBERAL EDUCATION
p1404
sa(dp1405
g2
Vhttps://s1.nyt.com/du/books/images/9781466876224.jpg
p1406
sg4
g337
sg6
V9781466876224
p1407
sg8
VSean Naylor
p1408
sg10
VRELENTLESS STRIKE
p1409
sa(dp1410
g2
Vhttps://s1.nyt.com/du/books/images/9780446553957.jpg
p1411
sg4
g468
sg6
V9780446553957
p1412
sg8
VBrad Meltzer
p1413
sg10
VTHE PRESIDENT'S SHADOW
p1414
sa(dp1415
g2
Vhttps://s1.nyt.com/du/books/images/9781501111686.jpg
p1416
sg4
g158
sg6
V9781501111679
p1417
sg8
VStephen King
p1418
sg10
VTHE BAZAAR OF BAD DREAMS
p1419
sa(dp1420
g2
Vhttp://du.ec2.nytimes.com.s3.amazonaws.com/prd/books/9781501100130.jpg
p1421
sg4
g158
sg6
V9781501100130
p1422
sg8
VStephen King
p1423
sg10
VFINDERS KEEPERS
p1424
sa(dp1425
g2
Vhttps://s1.nyt.com/du/books/images/9781501134159.jpg
p1426
sg4
g158
sg6
V9781501129742
p1427
sg8
VStephen King
p1428
sg10
VEND OF WATCH
p1429
sa(dp1430
g2
Vhttps://s1.nyt.com/du/books/images/9781451627299.jpg
p1431
sg4
g158
sg6
V9781501120602
p1432
sg8
VStephen King
p1433
sg10
V11/22/63
p1434
sa(dp1435
g2
Vhttp://du.ec2.nytimes.com.s3.amazonaws.com/prd/books/9781476770406.jpg
p1436
sg4
g158
sg6
V9781476770383
p1437
sg8
VStephen King
p1438
sg10
VREVIVAL
p1439
sa(dp1440
g2
Vhttps://s1.nyt.com/du/books/images/9780307476074.jpg
p1441
sg4
g170
sg6
V9780307476074
p1442
sg8
VCheryl Strayed
p1443
sg10
VWILD
p1444
sa(dp1445
g2
Vhttps://s1.nyt.com/du/books/images/9780451418357.jpg
p1446
sg4
VNew American Library
p1447
sg6
V9780451418357
p1448
sg8
VCatherine Anderson
p1449
sg10
VNEW LEAF
p1450
sa(dp1451
g2
Vhttp://du.ec2.nytimes.com.s3.amazonaws.com/prd/books/9780062312495.jpg
p1452
sg4
g1115
sg6
V9780062312495
p1453
sg8
VMaya Banks
p1454
sg10
VIN HIS KEEPING
p1455
sa(dp1456
g2
Vhttps://s1.nyt.com/du/books/images/9780698191822.jpg
p1457
sg4
g83
sg6
V9780698191822
p1458
sg8
VMaya Banks
p1459
sg10
VDOMINATED
p1460
sa(dp1461
g2
Vhttps://s1.nyt.com/du/books/images/9780062312518.jpg
p1462
sg4
VAvon
p1463
sg6
V9780062312518
p1464
sg8
VMaya Banks
p1465
sg10
VSAFE AT LAST
p1466
sa(dp1467
g2
Vhttps://s1.nyt.com/du/books/images/9780425276990.jpg
p1468
sg4
g83
sg6
V9780698176188
p1469
sg8
VMaya Banks
p1470
sg10
VDARKEST BEFORE DAWN
p1471
sa(dp1472
g2
Vhttps://s1.nyt.com/du/books/images/9780399184437.jpg
p1473
sg4
g973
sg6
V9780399184413
p1474
sg8
VCarlo Rovelli
p1475
sg10
VSEVEN BRIEF LESSONS ON PHYSICS
p1476
sa(dp1477
g2
Vhttp://du.ec2.nytimes.com.s3.amazonaws.com/prd/books/9780316248679.jpg
p1478
sg4
g5
sg6
V9780316055437
p1479
sg8
VDonna Tartt
p1480
sg10
VTHE GOLDFINCH
p1481
sa(dp1482
g2
Vhttp://du.ec2.nytimes.com.s3.amazonaws.com/prd/books/9780062223920.jpg
p1483
sg4
VAvon
p1484
sg6
V9780062223920
p1485
sg8
VEloisa James
p1486
sg10
VFOUR NIGHTS WITH THE DUKE
p1487
sa(dp1488
g2
Vhttps://s1.nyt.com/du/books/images/9780679604440.jpg
p1489
sg4
g305
sg6
V9780679604440
p1490
sg8
VEloisa James
p1491
sg10
VPARIS IN LOVE
p1492
sa(dp1493
g2
Vhttps://s1.nyt.com/du/books/images/9780062389442.jpg
p1494
sg4
VAvon
p1495
sg6
V9780062389442
p1496
sg8
VEloisa James
p1497
sg10
VMY AMERICAN DUCHESS
p1498
sa(dp1499
g2
Vhttps://s1.nyt.com/du/books/images/9780812995008.jpg
p1500
sg4
g305
sg6
V9780812994995
p1501
sg8
VLena Dunham
p1502
sg10
VNOT THAT KIND OF GIRL
p1503
sa(dp1504
g2
Vhttps://s1.nyt.com/du/books/images/9780062417435.jpg
p1505
sg4
g48
sg6
V9780062417435
p1506
sg8
VBill Bryson
p1507
sg10
VNOTES FROM A SMALL ISLAND
p1508
sa(dp1509
g2
Vhttps://s1.nyt.com/du/books/images/9780385539296.jpg
p1510
sg4
VDoubleday
p1511
sg6
V9780385539289
p1512
sg8
VBill Bryson
p1513
sg10
VTHE ROAD TO LITTLE DRIBBLING
p1514
sa(dp1515
g2
Vhttps://s1.nyt.com/du/books/images/9780062417428.jpg
p1516
sg4
g48
sg6
V9780062417428
p1517
sg8
VBill Bryson
p1518
sg10
VNEITHER HERE NOR THERE
p1519
sa(dp1520
g2
Vhttps://s1.nyt.com/du/books/images/9780307717832.jpg
p1521
sg4
g712
sg6
V9780307717832
p1522
sg8
VBill Bryson
p1523
sg10
VA WALK IN THE WOODS
p1524
sa(dp1525
g2
Vhttps://s1.nyt.com/du/books/images/9780062417442.jpg
p1526
sg4
g316
sg6
V9780062417442
p1527
sg8
VBill Bryson
p1528
sg10
VTHE MOTHER TONGUE
p1529
sa(dp1530
g2
Vhttps://s1.nyt.com/du/books/images/9780062294418.jpg
p1531
sg4
VHarperCollins
p1532
sg6
V9780062294418
p1533
sg8
VMitch Albom
p1534
sg10
VTHE MAGIC STRINGS OF FRANKIE PRESTO
p1535
sa(dp1536
g2
Vhttp://du.ec2.nytimes.com.s3.amazonaws.com/prd/books/9780062250742.jpg
p1537
sg4
VHarper
p1538
sg6
V9780062250742
p1539
sg8
VBernard Cornwell
p1540
sg10
VTHE EMPTY THRONE
p1541
sa(dp1542
g2
Vhttps://s1.nyt.com/du/books/images/9780062250964.jpg
p1543
sg4
VHarper
p1544
sg6
V9780062250964
p1545
sg8
VBernard Cornwell
p1546
sg10
VWARRIORS OF THE STORM
p1547
sa(dp1548
g2
Vhttps://s1.nyt.com/du/books/images/9780385535601.jpg
p1549
sg4
VDoubleday
p1550
sg6
V9780385535595
p1551
sg8
VJane Mayer
p1552
sg10
VDARK MONEY
p1553
sa(dp1554
g2
Vhttps://s1.nyt.com/du/books/images/9780425256763.jpg
p1555
sg4
g753
sg6
V9780698180918
p1556
sg8
VPatricia Briggs
p1557
sg10
VFIRE TOUCHED
p1558
sa(dp1559
g2
Vhttp://du.ec2.nytimes.com.s3.amazonaws.com/prd/books/9780698184633.jpg
p1560
sg4
g753
sg6
V9780698184633
p1561
sg8
VPatricia Briggs
p1562
sg10
VDEAD HEAT
p1563
sa(dp1564
g2
Vhttps://s1.nyt.com/du/books/images/9780553446678.jpg
p1565
sg4
g42
sg6
V9780553446678
p1566
sg8
VGiuliana Rancic
p1567
sg10
VGOING OFF SCRIPT
p1568
sa(dp1569
g2
Vhttps://s1.nyt.com/du/books/images/9781466870031.jpg
p1570
sg4
g182
sg6
V9781466870031
p1571
sg8
VAllison Brennan
p1572
sg10
VNO GOOD DEED
p1573
sa(dp1574
g2
Vhttps://s1.nyt.com/du/books/images/9780743247542.jpg
p1575
sg4
g158
sg6
V9780743247542
p1576
sg8
VJeannette Walls
p1577
sg10
VTHE GLASS CASTLE
p1578
sa(dp1579
g2
Vhttp://du.ec2.nytimes.com.s3.amazonaws.com/prd/books/9781502541857.jpg
p1580
sg4
VAmazon.com
p1581
sg6
VA00B00Q6JAL76
p1582
sg8
VJamie McGuire
p1583
sg10
VBEAUTIFUL REDEMPTION
p1584
sa(dp1585
g2
Vhttps://s1.nyt.com/du/books/images/9781310232152.jpg
p1586
sg4
g1581
sg6
V9781310232152
p1587
sg8
VJamie McGuire
p1588
sg10
VBEAUTIFUL BURN
p1589
sa(dp1590
g2
Vhttp://du.ec2.nytimes.com.s3.amazonaws.com/prd/books/9781511847506.jpg
p1591
sg4
VAmazon.com
p1592
sg6
VA00B00WFGUQ4W
p1593
sg8
VJamie McGuire
p1594
sg10
VBEAUTIFUL SACRIFICE
p1595
sa(dp1596
g2
Nsg4
g1581
sg6
VA00B00XB7J2EO
p1597
sg8
VJamie McGuire
p1598
sg10
VSOMETHING BEAUTIFUL
p1599
sa(dp1600
g2
Vhttps://s1.nyt.com/du/books/images/9780061980411.jpg
p1601
sg4
VHarperCollins
p1602
sg6
V9780061980411
p1603
sg8
VRoger Moore
p1604
sg10
VMY WORD IS MY BOND
p1605
sa(dp1606
g2
Vhttps://s1.nyt.com/du/books/images/9780307700667.jpg
p1607
sg4
VVintage Books
p1608
sg6
V9780385350273
p1609
sg8
VLawrence Wright
p1610
sg10
VGOING CLEAR
p1611
sa(dp1612
g2
Vhttps://s1.nyt.com/du/books/images/9781101875100.jpg
p1613
sg4
g170
sg6
V9781101875100
p1614
sg8
VPatti Smith
p1615
sg10
VM TRAIN
p1616
sa(dp1617
g2
Vhttps://s1.nyt.com/du/books/images/9781250061133.jpg
p1618
sg4
g517
sg6
V9781250061133
p1619
sg8
VScott Simon
p1620
sg10
VUNFORGETTABLE
p1621
sa(dp1622
g2
Vhttps://s1.nyt.com/du/books/images/9780804177641.jpg
p1623
sg4
g257
sg6
V9780804177641
p1624
sg8
VJustin Cronin
p1625
sg10
VTHE CITY OF MIRRORS
p1626
sa(dp1627
g2
Vhttps://s1.nyt.com/du/books/images/9780996117111.jpg
p1628
sg4
g146
sg6
V9780996117111
p1629
sg8
VBarbara Freethy
p1630
sg10
VIF I DIDN'T KNOW BETTER
p1631
sa(dp1632
g2
Vhttps://s1.nyt.com/du/books/images/9781455586431.jpg
p1633
sg4
g468
sg6
V9781455586417
p1634
sg8
VDavid Baldacci
p1635
sg10
VTHE GUILTY
p1636
sa(dp1637
g2
Vhttps://s1.nyt.com/du/books/images/9781455586455.jpg
p1638
sg4
g468
sg6
V9781455586486
p1639
sg8
VDavid Baldacci
p1640
sg10
VTHE LAST MILE
p1641
sa(dp1642
g2
Vhttp://du.ec2.nytimes.com.s3.amazonaws.com/prd/books/9781455521197.jpg
p1643
sg4
g468
sg6
V9781455521272
p1644
sg8
VDavid Baldacci
p1645
sg10
VTHE ESCAPE
p1646
sa(dp1647
g2
Vhttp://du.ec2.nytimes.com.s3.amazonaws.com/prd/books/9781455586387.jpg
p1648
sg4
g468
sg6
V9781455586387
p1649
sg8
VDavid Baldacci
p1650
sg10
VMEMORY MAN
p1651
sa(dp1652
g2
Vhttp://du.ec2.nytimes.com.s3.amazonaws.com/prd/books/9780759520127.jpg
p1653
sg4
g468
sg6
V9780759520127
p1654
sg8
VDavid Baldacci
p1655
sg10
VWISH YOU WELL
p1656
sa(dp1657
g2
Vhttp://du.ec2.nytimes.com.s3.amazonaws.com/prd/books/9780759524927.jpg
p1658
sg4
g146
sg6
V9780759524927
p1659
sg8
VDavid Baldacci
p1660
sg10
VTOTAL CONTROL
p1661
sa(dp1662
g2
Vhttps://s1.nyt.com/du/books/images/9780698152045.jpg
p1663
sg4
VViking Press
p1664
sg6
V9780698152045
p1665
sg8
VJojo Moyes
p1666
sg10
VAFTER YOU
p1667
sa(dp1668
g2
Vhttps://s1.nyt.com/du/books/images/9780143124542.jpg
p1669
sg4
VPenguin Group
p1670
sg6
V9781101606377
p1671
sg8
VJojo Moyes
p1672
sg10
VME BEFORE YOU
p1673
sa(dp1674
g2
Vhttp://du.ec2.nytimes.com.s3.amazonaws.com/prd/books/9780345535115.jpg
p1675
sg4
V Random House
p1676
sg6
V9780345535115
p1677
sg8
VDebbie Macomber
p1678
sg10
VTHE INN AT ROSE HARBOR
p1679
sa(dp1680
g2
Vhttp://du.ec2.nytimes.com.s3.amazonaws.com/prd/books/9780553391886.jpg
p1681
sg4
g257
sg6
V9780553391893
p1682
sg8
VDebbie Macomber
p1683
sg10
VLAST ONE HOME
p1684
sa(dp1685
g2
Vhttps://s1.nyt.com/du/books/images/9780553391800.jpg
p1686
sg4
g257
sg6
V9780553391800
p1687
sg8
VDebbie Macomber
p1688
sg10
VSILVER LININGS
p1689
sa(dp1690
g2
Vhttps://s1.nyt.com/du/books/images/9780553391930.jpg
p1691
sg4
g257
sg6
V9780553391930
p1692
sg8
VDebbie Macomber
p1693
sg10
VA GIRL'S GUIDE TO MOVING ON
p1694
sa(dp1695
g2
Vhttps://s1.nyt.com/du/books/images/9781426865466.jpg
p1696
sg4
g30
sg6
V9781459254824
p1697
sg8
VDebbie Macomber
p1698
sg10
V16 LIGHTHOUSE ROAD
p1699
sa(dp1700
g2
Vhttps://s1.nyt.com/du/books/images/9780553391701.jpg
p1701
sg4
g257
sg6
V9780553391701
p1702
sg8
VDebbie Macomber
p1703
sg10
VDASHING THROUGH THE SNOW
p1704
sa(dp1705
g2
Vhttps://s1.nyt.com/du/books/images/9781941824023.jpg
p1706
sg4
g257
sg6
V9781941824023
p1707
sg8
VDebbie Macomber
p1708
sg10
VTHE WAY TO A MAN'S HEART
p1709
sa(dp1710
g2
Vhttps://s1.nyt.com/du/books/images/9780345531056.jpg
p1711
sg4
g1166
sg6
V9780804179652
p1712
sg8
VDanielle Steel
p1713
sg10
VBLUE
p1714
sa(dp1715
g2
Vhttps://s1.nyt.com/du/books/images/9780804179669.jpg
p1716
sg4
g1166
sg6
V9780804179669
p1717
sg8
VDanielle Steel
p1718
sg10
VPROPERTY OF A NOBLEWOMAN
p1719
sa(dp1720
g2
Vhttp://du.ec2.nytimes.com.s3.amazonaws.com/prd/books/9780385343152.jpg
p1721
sg4
g305
sg6
V9780804179621
p1722
sg8
VDanielle Steel
p1723
sg10
VPRODIGAL SON
p1724
sa(dp1725
g2
Vhttps://s1.nyt.com/du/books/images/9780345531032.jpg
p1726
sg4
g1166
sg6
V9780804179645
p1727
sg8
VDanielle Steel
p1728
sg10
VPRECIOUS GIFTS
p1729
sa(dp1730
g2
Vhttps://s1.nyt.com/du/books/images/9780345531025.jpg
p1731
sg4
g1166
sg6
V9780345531025
p1732
sg8
VDanielle Steel
p1733
sg10
VCOUNTRY
p1734
sa(dp1735
g2
Vhttps://s1.nyt.com/du/books/images/9780804179676.jpg
p1736
sg4
g1166
sg6
V9780804179676
p1737
sg8
VDanielle Steel
p1738
sg10
VTHE APARTMENT
p1739
sa(dp1740
g2
Vhttps://s1.nyt.com/du/books/images/9780804179638.jpg
p1741
sg4
g1166
sg6
V9780804179638
p1742
sg8
VDanielle Steel
p1743
sg10
VUNDERCOVER
p1744
sa(dp1745
g2
Vhttp://du.ec2.nytimes.com.s3.amazonaws.com/prd/books/9780804139038.jpg
p1746
sg4
g1053
sg6
V9780553418026
p1747
sg8
VAndy Weir
p1748
sg10
VTHE MARTIAN
p1749
sa(dp1750
g2
Vhttps://s1.nyt.com/du/books/images/9781501117008.jpg
p1751
sg4
g135
sg6
V9781501117008
p1752
sg8
VIsabel Allende
p1753
sg10
VTHE JAPANESE LOVER
p1754
sa(dp1755
g2
Vhttps://s1.nyt.com/du/books/images/9780525954330.jpg
p1756
sg4
g288
sg6
V9780698186163
p1757
sg8
VElizabeth George
p1758
sg10
VA BANQUET OF CONSEQUENCES
p1759
sa(dp1760
g2
Vhttp://du.ec2.nytimes.com.s3.amazonaws.com/prd/books/9780804178747.jpg
p1761
sg4
g1166
sg6
V9780804178754
p1762
sg8
VLee Child
p1763
sg10
VPERSONAL
p1764
sa(dp1765
g2
Vhttps://s1.nyt.com/du/books/images/9780804178785.jpg
p1766
sg4
g1166
sg6
V9780804178785
p1767
sg8
VLee Child
p1768
sg10
VMAKE ME
p1769
sa(dp1770
g2
Vhttps://s1.nyt.com/du/books/images/9780804178846.jpg
p1771
sg4
g1166
sg6
V9780804178846
p1772
sg8
VLee Child
p1773
sg10
VSMALL WARS
p1774
sa(dp1775
g2
Vhttps://s1.nyt.com/du/books/images/9780062379412.jpg
p1776
sg4
VAvon
p1777
sg6
V9780062379399
p1778
sg8
VSarah MacLean
p1779
sg10
VTHE ROGUE NOT TAKEN
p1780
sa(dp1781
g2
Vhttps://s1.nyt.com/du/books/images/9780312342036.jpg
p1782
sg4
g337
sg6
V9780312342036
p1783
sg8
VAugusten Burroughs
p1784
sg10
VLUST AND WONDER
p1785
sa(dp1786
g2
Vhttp://du.ec2.nytimes.com.s3.amazonaws.com/prd/books/9780786036585.jpg
p1787
sg4
g224
sg6
V9780786036585
p1788
sg8
VGregg Olsen
p1789
sg10
VA WICKED SNOW
p1790
sa(dp1791
g2
Vhttps://s1.nyt.com/du/books/images/9780062435156.jpg
p1792
sg4
VHarperCollins
p1793
sg6
V9780062435156
p1794
sg8
VJames Hayman
p1795
sg10
VTHE GIRL IN THE GLASS
p1796
sa(dp1797
g2
Vhttp://du.ec2.nytimes.com.s3.amazonaws.com/prd/books/9780525953098.jpg
p1798
sg4
g152
sg6
V9780525953098
p1799
sg8
VKen Follett
p1800
sg10
VEDGE OF ETERNITY
p1801
sa(dp1802
g2
Vhttps://s1.nyt.com/du/books/images/9780061929380.jpg
p1803
sg4
VHarper
p1804
sg6
V9780061938740
p1805
sg8
VMichael Crichton
p1806
sg10
VPIRATE LATITUDES
p1807
sa(dp1808
g2
Vhttp://du.ec2.nytimes.com.s3.amazonaws.com/prd/books/9780061750236.jpg
p1809
sg4
VHarper
p1810
sg6
V9780061750236
p1811
sg8
VMichael Crichton
p1812
sg10
VPREY
p1813
sa(dp1814
g2
Vhttps://s1.nyt.com/du/books/images/9780061752728.jpg
p1815
sg4
g48
sg6
V9780061752728
p1816
sg8
VMichael Crichton
p1817
sg10
VSTATE OF FEAR
p1818
sa(dp1819
g2
Vhttps://s1.nyt.com/du/books/images/9780393245455.jpg
p1820
sg4
g1221
sg6
V9780393245448
p1821
sg8
VMary Roach
p1822
sg10
VGRUNT
p1823
sa(dp1824
g2
Vhttps://s1.nyt.com/du/books/images/9780307795298.jpg
p1825
sg4
g257
sg6
V9780307795298
p1826
sg8
VSusan Orlean
p1827
sg10
VTHE ORCHID THIEF
p1828
sa(dp1829
g2
Vhttps://s1.nyt.com/du/books/images/9780345518569.jpg
p1830
sg4
g257
sg6
V9780345518576
p1831
sg8
VKathy Griffin
p1832
sg10
VOFFICIAL BOOK CLUB SELECTION
p1833
sa(dp1834
g2
Vhttps://s1.nyt.com/du/books/images/9781101638477.jpg
p1835
sg4
g83
sg6
V9781101638477
p1836
sg8
VJill Shalvis
p1837
sg10
VALL I WANT
p1838
sa(dp1839
g2
Vhttp://du.ec2.nytimes.com.s3.amazonaws.com/prd/books/9781101638460.jpg
p1840
sg4
g83
sg6
V9781101638460
p1841
sg8
VJill Shalvis
p1842
sg10
VSTILL THE ONE
p1843
sa(dp1844
g2
Vhttps://s1.nyt.com/du/books/images/9781455586806.jpg
p1845
sg4
g468
sg6
V9781455586790
p1846
sg8
VJill Shalvis
p1847
sg10
VNOBODY BUT YOU
p1848
sa(dp1849
g2
Vhttps://s1.nyt.com/du/books/images/9780544323520.jpg
p1850
sg4
VHoughton Mifflin Harcourt
p1851
sg6
V9780544323520
p1852
sg8
VPaul Theroux
p1853
sg10
VDEEP SOUTH
p1854
sa(dp1855
g2
Vhttps://s1.nyt.com/du/books/images/9780062323194.jpg
p1856
sg4
g733
sg6
V9780062323217
p1857
sg8
VDerek Hough
p1858
sg10
VTAKING THE LEAD
p1859
sa(dp1860
g2
Vhttps://s1.nyt.com/du/books/images/9781466867505.jpg
p1861
sg4
g337
sg6
V9781466867505
p1862
sg8
VJeffrey Archer
p1863
sg10
VCOMETH THE HOUR
p1864
sa(dp1865
g2
Vhttp://du.ec2.nytimes.com.s3.amazonaws.com/prd/books/9781250034519.jpg
p1866
sg4
g499
sg6
V9781250034502
p1867
sg8
VJeffrey Archer
p1868
sg10
VMIGHTIER THAN THE SWORD
p1869
sa(dp1870
g2
Vhttps://s1.nyt.com/du/books/images/9781601427557.jpg
p1871
sg4
VCrown Publishing Group
p1872
sg6
V9781601427557
p1873
sg8
VNadia Bolz-Weber
p1874
sg10
VACCIDENTAL SAINTS
p1875
sa(dp1876
g2
Vhttps://s1.nyt.com/du/books/images/9780553419979.jpg
p1877
sg4
g1053
sg6
V9780553419962
p1878
sg8
VTed Koppel
p1879
sg10
VLIGHTS OUT
p1880
sa(dp1881
g2
Vhttps://s1.nyt.com/du/books/images/9781476785653.jpg
p1882
sg4
g571
sg6
V9781476785653
p1883
sg8
VFelicia Day
p1884
sg10
VYOU'RE NEVER WEIRD ON THE INTERNET (ALMOST)
p1885
sa(dp1886
g2
Vhttps://s1.nyt.com/du/books/images/9780062097767.jpg
p1887
sg4
VHarper
p1888
sg6
V9780062097767
p1889
sg8
VCaroline Moorehead
p1890
sg10
VA TRAIN IN WINTER
p1891
sa(dp1892
g2
Vhttps://s1.nyt.com/du/books/images/9780679645429.jpg
p1893
sg4
g305
sg6
V9780812993394
p1894
sg8
VCharles Duhigg
p1895
sg10
VSMARTER FASTER BETTER
p1896
sa(dp1897
g2
Vhttps://s1.nyt.com/du/books/images/9780812981605.jpg
p1898
sg4
g305
sg6
V9780812981605
p1899
sg8
VCharles Duhigg
p1900
sg10
VTHE POWER OF HABIT
p1901
sa(dp1902
g2
Vhttps://s1.nyt.com/du/books/images/9780804177665.jpg
p1903
sg4
VDel Rey Books
p1904
sg6
V9780345511621
p1905
sg8
VChuck Wendig
p1906
sg10
VSTAR WARS: AFTERMATH
p1907
sa(dp1908
g2
Vhttps://s1.nyt.com/du/books/images/9781478907084.jpg
p1909
sg4
VHachette Book Group
p1910
sg6
V9781455536115
p1911
sg8
VMichael Savage
p1912
sg10
VGOVERNMENT ZERO
p1913
sa(dp1914
g2
Vhttps://s1.nyt.com/du/books/images/9780307911575.jpg
p1915
sg4
VPantheon Books
p1916
sg6
V9780307911575
p1917
sg8
VAlexander McCall Smith
p1918
sg10
VTHE WOMAN WHO WALKED IN SUNSHINE
p1919
sa(dp1920
g2
Vhttps://s1.nyt.com/du/books/images/9781466862678.jpg
p1921
sg4
g392
sg6
V9781466862678
p1922
sg8
VBrandon Sanderson
p1923
sg10
VTHE BANDS OF MOURNING
p1924
sa(dp1925
g2
Vhttps://s1.nyt.com/du/books/images/9780765378552.jpg
p1926
sg4
g392
sg6
V9781466862661
p1927
sg8
VBrandon Sanderson
p1928
sg10
VSHADOWS OF SELF
p1929
sa(dp1930
g2
Vhttps://s1.nyt.com/du/books/images/9781101902967.jpg
p1931
sg4
g42
sg6
V9781101902967
p1932
sg8
VKimberly Williams-Paisley
p1933
sg10
VWHERE THE LIGHT GETS IN
p1934
sa(dp1935
g2
Vhttps://s1.nyt.com/du/books/images/9780062200655.jpg
p1936
sg4
g733
sg6
V9780062200631
p1937
sg8
VJoe Hill
p1938
sg10
VTHE FIREMAN
p1939
sa(dp1940
g2
Vhttps://s1.nyt.com/du/books/images/9780316200615.jpg
p1941
sg4
g5
sg6
V9780316200608
p1942
sg8
VStacy Schiff
p1943
sg10
VTHE WITCHES
p1944
sa(dp1945
g2
Vhttps://s1.nyt.com/du/books/images/9781416563105.jpg
p1946
sg4
g164
sg6
V9781416563228
p1947
sg8
VSandra Brown
p1948
sg10
VTOUGH CUSTOMER
p1949
sa(dp1950
g2
Vhttps://s1.nyt.com/du/books/images/9781455581160.jpg
p1951
sg4
g468
sg6
V9781455581177
p1952
sg8
VSandra Brown
p1953
sg10
VFRICTION
p1954
sa(dp1955
g2
Vhttps://s1.nyt.com/du/books/images/9781250058904.jpg
p1956
sg4
g337
sg6
V9781250058904
p1957
sg8
VBrandon Stanton
p1958
sg10
VHUMANS OF NEW YORK: STORIES
p1959
sa(dp1960
g2
Vhttps://s1.nyt.com/du/books/images/9781250038821.jpg
p1961
sg4
g337
sg6
V9781250038821
p1962
sg8
VBrandon Stanton
p1963
sg10
VHUMANS OF NEW YORK
p1964
sa(dp1965
g2
Vhttp://du.ec2.nytimes.com.s3.amazonaws.com/prd/books/9780345542946.jpg
p1966
sg4
g386
sg6
V9780345542939
p1967
sg8
VJanet Evanovich
p1968
sg10
VTOP SECRET TWENTY-ONE
p1969
sa(dp1970
g2
Vhttps://s1.nyt.com/du/books/images/9780345542984.jpg
p1971
sg4
g386
sg6
V9780345542984
p1972
sg8
VJanet Evanovich
p1973
sg10
VTRICKY TWENTY-TWO
p1974
sa(dp1975
g2
Vhttp://du.ec2.nytimes.com.s3.amazonaws.com/prd/books/9780345527776.jpg
p1976
sg4
g1676
sg6
V9780345527783
p1977
sg8
VJanet Evanovich
p1978
sg10
VWICKED BUSINESS
p1979
sa(dp1980
g2
Vhttp://du.ec2.nytimes.com.s3.amazonaws.com/prd/books/9781101874288.jpg
p1981
sg4
g170
sg6
V9781101874288
p1982
sg8
VAnne Tyler
p1983
sg10
VA SPOOL OF BLUE THREAD
p1984
sa(dp1985
g2
Vhttps://s1.nyt.com/du/books/images/9780385349178.jpg
p1986
sg4
VCrown Publishing Group
p1987
sg6
V9780385349192
p1988
sg8
VCharles Krauthammer
p1989
sg10
VTHINGS THAT MATTER
p1990
sa(dp1991
g2
Vhttps://s1.nyt.com/du/books/images/9780804137263.jpg
p1992
sg4
g1053
sg6
V9780804137256
p1993
sg8
VErnest Cline
p1994
sg10
VARMADA
p1995
sa(dp1996
g2
Vhttps://s1.nyt.com/du/books/images/9780994054425.jpg
p1997
sg4
VAmazon.com
p1998
sg6
V9780994054425
p1999
sg8
VElle Kennedy
p2000
sg10
VTHE SCORE
p2001
sa(dp2002
g2
Vhttp://du.ec2.nytimes.com.s3.amazonaws.com/prd/books/9780994054418.jpg
p2003
sg4
g1998
sg6
V9780994054418
p2004
sg8
VElle Kennedy
p2005
sg10
VTHE MISTAKE
p2006
sa(dp2007
g2
Vhttp://du.ec2.nytimes.com.s3.amazonaws.com/prd/books/9780698180512.jpg
p2008
sg4
g60
sg6
V9780698180512
p2009
sg8
VChristine Feehan
p2010
sg10
VCAT'S LAIR
p2011
sa(dp2012
g2
Vhttps://s1.nyt.com/du/books/images/9780698180536.jpg
p2013
sg4
g83
sg6
V9780698180536
p2014
sg8
VChristine Feehan
p2015
sg10
VDARK GHOST
p2016
sa(dp2017
g2
Vhttp://du.ec2.nytimes.com.s3.amazonaws.com/prd/books/9780515155549.jpg
p2018
sg4
g60
sg6
V9780698180567
p2019
sg8
VChristine Feehan
p2020
sg10
VVIPER GAME
p2021
sa(dp2022
g2
Vhttps://s1.nyt.com/du/books/images/9780698197756.jpg
p2023
sg4
g60
sg6
V9780698197756
p2024
sg8
VChristine Feehan
p2025
sg10
VFIRE BOUND
p2026
sa(dp2027
g2
Vhttps://s1.nyt.com/du/books/images/9780515156102.jpg
p2028
sg4
g60
sg6
V9780698197749
p2029
sg8
VChristine Feehan
p2030
sg10
VSPIDER GAME
p2031
sa(dp2032
g2
Vhttps://s1.nyt.com/du/books/images/9780515156096.jpg
p2033
sg4
g60
sg6
V9780698197732
p2034
sg8
VChristine Feehan
p2035
sg10
VWILD CAT
p2036
sa(dp2037
g2
Vhttps://s1.nyt.com/du/books/images/9780425277355.jpg
p2038
sg4
g83
sg6
V9780698180543
p2039
sg8
VChristine Feehan
p2040
sg10
VDARK PROMISES
p2041
sa(dp2042
g2
Vhttps://s1.nyt.com/du/books/images/9780698180529.jpg
p2043
sg4
g60
sg6
V9780698180529
p2044
sg8
VChristine Feehan
p2045
sg10
VEARTH BOUND
p2046
sa(dp2047
g2
Vhttp://du.ec2.nytimes.com.s3.amazonaws.com/prd/books/9780802191830.jpg
p2048
sg4
VGrove Atlantic
p2049
sg6
V9780802191830
p2050
sg8
VDonna Leon
p2051
sg10
VFALLING IN LOVE
p2052
sa(dp2053
g2
Vhttps://s1.nyt.com/du/books/images/9780802124807.jpg
p2054
sg4
g2049
sg6
V9780802190314
p2055
sg8
VDonna Leon
p2056
sg10
VTHE WATERS OF ETERNAL YOUTH
p2057
sa(dp2058
g2
Vhttps://s1.nyt.com/du/books/images/9780399184123.jpg
p2059
sg4
VPenguin Group
p2060
sg6
V9780399184123
p2061
sg8
VChuck Klosterman
p2062
sg10
VBUT WHAT IF WE'RE WRONG?
p2063
sa(dp2064
g2
Vhttp://du.ec2.nytimes.com.s3.amazonaws.com/prd/books/9781455574490.jpg
p2065
sg4
g146
sg6
V9781455574490
p2066
sg8
VRebecca Zanetti
p2067
sg10
VTOTAL SURRENDER
p2068
sa(dp2069
g2
Vhttps://s1.nyt.com/du/books/images/9780062295910.jpg
p2070
sg4
g1282
sg6
V9780062295897
p2071
sg8
VKim Gordon
p2072
sg10
VGIRL IN A BAND
p2073
sa(dp2074
g2
Vhttps://s1.nyt.com/du/books/images/9781940941707.jpg
p2075
sg4
g146
sg6
V9781940941707
p2076
sg8
VAlessandra Torre
p2077
sg10
VHOLLYWOOD DIRT
p2078
sa(dp2079
g2
Vhttps://s1.nyt.com/du/books/images/9781420139013.jpg
p2080
sg4
g146
sg6
V9781420139013
p2081
sg8
VKat Martin
p2082
sg10
VINTO THE FURY
p2083
sa(dp2084
g2
Vhttp://du.ec2.nytimes.com.s3.amazonaws.com/prd/books/9781420133875.jpg
p2085
sg4
g146
sg6
V9781420133875
p2086
sg8
VKat Martin
p2087
sg10
VAGAINST THE TIDE
p2088
sa(dp2089
g2
Vhttps://s1.nyt.com/du/books/images/9781420139037.jpg
p2090
sg4
g146
sg6
V9781420139037
p2091
sg8
VKat Martin
p2092
sg10
VINTO THE WHIRLWIND
p2093
sa(dp2094
g2
Vhttps://s1.nyt.com/du/books/images/9781250060990.jpg
p2095
sg4
g337
sg6
V9781250060990
p2096
sg8
VMike Huckabee
p2097
sg10
VGOD, GUNS, GRITS AND GRAVY
p2098
sa(dp2099
g2
Vhttps://s1.nyt.com/du/books/images/9780679604662.jpg
p2100
sg4
g305
sg6
V9781400069699
p2101
sg8
VTom Brokaw
p2102
sg10
VLUCKY LIFE INTERRUPTED
p2103
sa(dp2104
g2
Vhttps://s1.nyt.com/du/books/images/9781400052189.jpg
p2105
sg4
g712
sg6
V9780307589385
p2106
sg8
VRebecca Skloot
p2107
sg10
VTHE IMMORTAL LIFE OF HENRIETTA LACKS
p2108
sa(dp2109
g2
Vhttps://s1.nyt.com/du/books/images/9780385535380.jpg
p2110
sg4
VDoubleday
p2111
sg6
V9780385535373
p2112
sg8
VHampton Sides
p2113
sg10
VIN THE KINGDOM OF ICE
p2114
sa(dp2115
g2
Vhttps://s1.nyt.com/du/books/images/9780062316035.jpg
p2116
sg4
VAvon
p2117
sg6
V9780062316035
p2118
sg8
VLynsay Sands
p2119
sg10
VABOUT A VAMPIRE
p2120
sa(dp2121
g2
Vhttps://s1.nyt.com/du/books/images/9780062316059.jpg
p2122
sg4
VAvon
p2123
sg6
V9780062316059
p2124
sg8
VLynsay Sands
p2125
sg10
VRUNAWAY VAMPIRE
p2126
sa(dp2127
g2
Vhttp://du.ec2.nytimes.com.s3.amazonaws.com/prd/books/9780062316004.jpg
p2128
sg4
g1115
sg6
V9780062316011
p2129
sg8
VLynsay Sands
p2130
sg10
VTHE IMMORTAL WHO LOVED ME
p2131
sa(dp2132
g2
Vhttp://du.ec2.nytimes.com.s3.amazonaws.com/prd/books/9780307588388.jpg
p2133
sg4
g1053
sg6
V9780307588388
p2134
sg8
VGillian Flynn
p2135
sg10
VGONE GIRL
p2136
sa(dp2137
g2
Vhttps://s1.nyt.com/du/books/images/9780804188982.jpg
p2138
sg4
g42
sg6
V9780804188982
p2139
sg8
VGillian Flynn
p2140
sg10
VTHE GROWNUP
p2141
sa(dp2142
g2
Vhttp://du.ec2.nytimes.com.s3.amazonaws.com/prd/books/9780307341556.jpg
p2143
sg4
g712
sg6
V9780307341556
p2144
sg8
VGillian Flynn
p2145
sg10
VSHARP OBJECTS
p2146
sa(dp2147
g2
Vhttp://du.ec2.nytimes.com.s3.amazonaws.com/prd/books/9780307341570.jpg
p2148
sg4
g712
sg6
V9780307459923
p2149
sg8
VGillian Flynn
p2150
sg10
VDARK PLACES
p2151
sa(dp2152
g2
Vhttp://du.ec2.nytimes.com.s3.amazonaws.com/prd/books/9780062190413.jpg
p2153
sg4
g733
sg6
V9780062190413
p2154
sg8
VNeal Stephenson
p2155
sg10
VSEVENEVES
p2156
sa(dp2157
g2
Vhttps://s1.nyt.com/du/books/images/9780399176142.jpg
p2158
sg4
g54
sg6
V9780698407466
p2159
sg8
VAlex Berenson
p2160
sg10
VTHE WOLVES
p2161
sa(dp2162
g2
Vhttp://du.ec2.nytimes.com.s3.amazonaws.com/prd/books/9780698187009.jpg
p2163
sg4
g54
sg6
V9780698187009
p2164
sg8
VAlex Berenson
p2165
sg10
VTWELVE DAYS
p2166
sa(dp2167
g2
Vhttps://s1.nyt.com/du/books/images/9781101902578.jpg
p2168
sg4
VCrown Publishing Group
p2169
sg6
V9781101902578
p2170
sg8
VTerry McMillan
p2171
sg10
VI ALMOST FORGOT ABOUT YOU
p2172
sa(dp2173
g2
Vhttp://du.ec2.nytimes.com.s3.amazonaws.com/prd/books/9781466878853.jpg
p2174
sg4
g337
sg6
V9781466878853
p2175
sg8
VBarbara Delinsky
p2176
sg10
VBLUEPRINTS
p2177
sa(dp2178
g2
Vhttps://s1.nyt.com/du/books/images/9780393072235.jpg
p2179
sg4
VW. W. Norton & Company
p2180
sg6
V9780393353150
p2181
sg8
VMichael Lewis
p2182
sg10
VTHE BIG SHORT
p2183
sa(dp2184
g2
Vhttps://s1.nyt.com/du/books/images/9780062369307.jpg
p2185
sg4
g1532
sg6
V9780062369284
p2186
sg8
VPeter Schweizer
p2187
sg10
VCLINTON CASH
p2188
sa(dp2189
g2
Vhttps://s1.nyt.com/du/books/images/9781627790840.jpg
p2190
sg4
VHenry Holt and Company
p2191
sg6
V9781627790833
p2192
sg8
VTim Weiner
p2193
sg10
VONE MAN AGAINST THE WORLD
p2194
sa(dp2195
g2
Vhttps://s1.nyt.com/du/books/images/9781101907061.jpg
p2196
sg4
g42
sg6
V9781101907061
p2197
sg8
VKate Siegel
p2198
sg10
VMOTHER, CAN YOU NOT?
p2199
sa(dp2200
g2
Vhttps://s1.nyt.com/du/books/images/9781476779287.jpg
p2201
sg4
g1360
sg6
V9781476779287
p2202
sg8
VLaura Griffin
p2203
sg10
VDEEP DARK
p2204
sa(dp2205
g2
Vhttp://du.ec2.nytimes.com.s3.amazonaws.com/prd/books/9780373779338.jpg
p2206
sg4
g72
sg6
V9781460381809
p2207
sg8
VLinda Lael Miller
p2208
sg10
VTHE MARRIAGE SEASON
p2209
sa(dp2210
g2
Vhttps://s1.nyt.com/du/books/images/9781459292529.jpg
p2211
sg4
g14
sg6
V9781459292529
p2212
sg8
VLinda Lael Miller
p2213
sg10
VONCE A RANCHER
p2214
sa(dp2215
g2
Vhttp://du.ec2.nytimes.com.s3.amazonaws.com/prd/books/9780525953500.jpg
p2216
sg4
g152
sg6
V9780698186200
p2217
sg8
VHarlan Coben
p2218
sg10
VTHE STRANGER
p2219
sa(dp2220
g2
Vhttps://s1.nyt.com/du/books/images/9780525955092.jpg
p2221
sg4
g152
sg6
V9780698404175
p2222
sg8
VHarlan Coben
p2223
sg10
VFOOL ME ONCE
p2224
sa(dp2225
g2
Vhttps://s1.nyt.com/du/books/images/9781501135125.jpg
p2226
sg4
g889
sg6
V9781501135125
p2227
sg8
VTeresa Giudice
p2228
sg10
VTURNING THE TABLES
p2229
sa(dp2230
g2
Vhttps://s1.nyt.com/du/books/images/9781455563128.jpg
p2231
sg4
g675
sg6
V9781455563111
p2232
sg8
VPeggy Noonan
p2233
sg10
VTHE TIME OF OUR LIVES
p2234
sa(dp2235
g2
Vhttps://s1.nyt.com/du/books/images/9780698145610.jpg
p2236
sg4
g764
sg6
V9780698145610
p2237
sg8
VAlexandra Fuller
p2238
sg10
VLEAVING BEFORE THE RAINS COME
p2239
sa(dp2240
g2
Vhttps://s1.nyt.com/du/books/images/9780399168154.jpg
p2241
sg4
g2060
sg6
V9780399168154
p2242
sg8
VLesley Stahl
p2243
sg10
VBECOMING GRANDMA
p2244
sa(dp2245
g2
Vhttps://s1.nyt.com/du/books/images/9780525426783.jpg
p2246
sg4
g288
sg6
V9780525426783
p2247
sg8
VNathaniel Philbrick
p2248
sg10
VVALIANT AMBITION
p2249
sa(dp2250
g2
Vhttps://s1.nyt.com/du/books/images/9780141001821.jpg
p2251
sg4
g1670
sg6
V9780143126812
p2252
sg8
VNathaniel Philbrick
p2253
sg10
VIN THE HEART OF THE SEA
p2254
sa(dp2255
g2
Vhttps://s1.nyt.com/du/books/images/9780698138001.jpg
p2256
sg4
VRoc books
p2257
sg6
V9780698138001
p2258
sg8
VJim Butcher
p2259
sg10
VTHE AERONAUT'S WINDLASS
p2260
sa(dp2261
g2
Vhttps://s1.nyt.com/du/books/images/9780307461186.jpg
p2262
sg4
g42
sg6
V9780307461209
p2263
sg8
VCarol Burnett
p2264
sg10
VTHIS TIME TOGETHER
p2265
sa(dp2266
g2
Vhttps://s1.nyt.com/du/books/images/9780698145665.jpg
p2267
sg4
g764
sg6
V9781594205873
p2268
sg8
VDavid Axelrod
p2269
sg10
VBELIEVER
p2270
sa(dp2271
g2
Vhttps://s1.nyt.com/du/books/images/9781594487132.jpg
p2272
sg4
g973
sg6
V9780698172524
p2273
sg8
VJon Ronson
p2274
sg10
VSO YOU'VE BEEN PUBLICLY SHAMED
p2275
sa(dp2276
g2
Vhttps://s1.nyt.com/du/books/images/9781583334676.jpg
p2277
sg4
VPenguin Random House
p2278
sg6
V9781583334676
p2279
sg8
VSteve Silberman
p2280
sg10
VNEUROTRIBES
p2281
sa(dp2282
g2
Vhttps://s1.nyt.com/du/books/images/9781451686579.jpg
p2283
sg4
g164
sg6
V9781451686593
p2284
sg8
VJonah Berger
p2285
sg10
VCONTAGIOUS
p2286
sa(dp2287
g2
Vhttps://s1.nyt.com/du/books/images/9781476759692.jpg
p2288
sg4
g164
sg6
V9781476759692
p2289
sg8
VJonah Berger
p2290
sg10
VINVISIBLE INFLUENCE
p2291
sa(dp2292
g2
Vhttp://du.ec2.nytimes.com.s3.amazonaws.com/prd/books/9780345544933.jpg
p2293
sg4
g257
sg6
V9780345544926
p2294
sg8
VJodi Picoult
p2295
sg10
VLEAVING TIME
p2296
sa(dp2297
g2
Vhttps://s1.nyt.com/du/books/images/9780385538749.jpg
p2298
sg4
VDoubleday
p2299
sg6
V9780385538749
p2300
sg8
VJon Krakauer
p2301
sg10
VMISSOULA
p2302
sa(dp2303
g2
Vhttp://du.ec2.nytimes.com.s3.amazonaws.com/prd/books/9780062076083.jpg
p2304
sg4
g1115
sg6
V9780062075826
p2305
sg8
VJeaniene Frost
p2306
sg10
VBOUND BY FLAMES
p2307
sa(dp2308
g2
Vhttps://s1.nyt.com/du/books/images/9780399167454.jpg
p2309
sg4
g54
sg6
V9780399167454
p2310
sg8
VJan Karon
p2311
sg10
VCOME RAIN OR COME SHINE
p2312
sa(dp2313
g2
Vhttps://s1.nyt.com/du/books/images/9780316306089.jpg
p2314
sg4
VHachette Book Group
p2315
sg6
V9780316306072
p2316
sg8
VDan Lyons
p2317
sg10
VDISRUPTED
p2318
sa(dp2319
g2
Vhttps://s1.nyt.com/du/books/images/9780393246186.jpg
p2320
sg4
g1221
sg6
V9780393246186
p2321
sg8
VFrans de Waal
p2322
sg10
VARE WE SMART ENOUGH TO KNOW HOW SMART ANIMALS ARE?
p2323
sa(dp2324
g2
Vhttps://s1.nyt.com/du/books/images/9780062079138.jpg
p2325
sg4
g659
sg6
V9780062079138
p2326
sg8
VDyan Cannon
p2327
sg10
VDEAR CARY
p2328
sa(dp2329
g2
Vhttps://s1.nyt.com/du/books/images/9781250029942.jpg
p2330
sg4
g337
sg6
V9781250029959
p2331
sg8
VSherrilyn Kenyon
p2332
sg10
VDRAGONBANE
p2333
sa(dp2334
g2
Vhttps://s1.nyt.com/du/books/images/9781466840959.jpg
p2335
sg4
g337
sg6
V9781466840959
p2336
sg8
VSherrilyn Kenyon
p2337
sg10
VBORN OF BETRAYAL
p2338
sa(dp2339
g2
Vhttps://s1.nyt.com/du/books/images/9781250082824.jpg
p2340
sg4
g337
sg6
V9781250082824
p2341
sg8
VSherrilyn Kenyon
p2342
sg10
VBORN OF LEGEND
p2343
sa(dp2344
g2
Vhttp://du.ec2.nytimes.com.s3.amazonaws.com/prd/books/9781466840966.jpg
p2345
sg4
g337
sg6
V9781466840966
p2346
sg8
VSherrilyn Kenyon
p2347
sg10
VBORN OF DEFIANCE
p2348
sa(dp2349
g2
Vhttps://s1.nyt.com/du/books/images/9780062217226.jpg
p2350
sg4
VHarper
p2351
sg6
V9780062217226
p2352
sg8
VAmanda Knox
p2353
sg10
VWAITING TO BE HEARD
p2354
sa(dp2355
g2
Vhttps://s1.nyt.com/du/books/images/9780374709204.jpg
p2356
sg4
g369
sg6
V9780374280604
p2357
sg8
VHctor Tobar
p2358
sg10
VDEEP DOWN DARK
p2359
sa(dp2360
g2
Vhttps://s1.nyt.com/du/books/images/9781476755717.jpg
p2361
sg4
g164
sg6
V9781476755717
p2362
sg8
VBill Browder
p2363
sg10
VRED NOTICE
p2364
sa(dp2365
g2
Vhttps://s1.nyt.com/du/books/images/9781501132476.jpg
p2366
sg4
g889
sg6
V9781501132476
p2367
sg8
VAndi Dorfman
p2368
sg10
VIT'S NOT OKAY
p2369
sa(dp2370
g2
Vhttps://s1.nyt.com/du/books/images/9780062225085.jpg
p2371
sg4
g1602
sg6
V9780062225085
p2372
sg8
VAlan Cumming
p2373
sg10
VNOT MY FATHER'S SON
p2374
sa(dp2375
g2
Vhttps://s1.nyt.com/du/books/images/9780399167256.jpg
p2376
sg4
g2060
sg6
V9780399167256
p2377
sg8
VElvis Costello
p2378
sg10
VUNFAITHFUL MUSIC AND DISAPPEARING INK
p2379
sa(dp2380
g2
Vhttp://du.ec2.nytimes.com.s3.amazonaws.com/prd/books/9781101605219.jpg
p2381
sg4
g83
sg6
V9781101605219
p2382
sg8
VNalini Singh
p2383
sg10
VSHARDS OF HOPE
p2384
sa(dp2385
g2
Vhttps://s1.nyt.com/du/books/images/9781101628904.jpg
p2386
sg4
g60
sg6
V9781101628904
p2387
sg8
VNalini Singh
p2388
sg10
VARCHANGEL'S ENIGMA
p2389
sa(dp2390
g2
Vhttps://s1.nyt.com/du/books/images/9780812996524.jpg
p2391
sg4
g305
sg6
V9781400063369
p2392
sg8
VRobert Kurson
p2393
sg10
VPIRATE HUNTERS
p2394
sa(dp2395
g2
Vhttps://s1.nyt.com/du/books/images/9781455518982.jpg
p2396
sg4
g5
sg6
V9780316069397
p2397
sg8
VMichael Connelly
p2398
sg10
VTHE DROP
p2399
sa(dp2400
g2
Vhttp://du.ec2.nytimes.com.s3.amazonaws.com/prd/books/9780316225939.jpg
p2401
sg4
g5
sg6
V9780316225922
p2402
sg8
VMichael Connelly
p2403
sg10
VTHE BURNING ROOM
p2404
sa(dp2405
g2
Vhttps://s1.nyt.com/du/books/images/9780316225892.jpg
p2406
sg4
g5
sg6
V9780316225892
p2407
sg8
VMichael Connelly
p2408
sg10
VTHE CROSSING
p2409
sa(dp2410
g2
Vhttps://s1.nyt.com/du/books/images/9781101965474.jpg
p2411
sg4
g386
sg6
V9781101965474
p2412
sg8
VDean Koontz
p2413
sg10
VFINAL HOUR
p2414
sa(dp2415
g2
Vhttp://du.ec2.nytimes.com.s3.amazonaws.com/prd/books/9780345545886.jpg
p2416
sg4
g386
sg6
V9780345545886
p2417
sg8
VDean Koontz
p2418
sg10
VSAINT ODD
p2419
sa(dp2420
g2
Vhttps://s1.nyt.com/du/books/images/9780345545978.jpg
p2421
sg4
g386
sg6
V9780345545978
p2422
sg8
VDean Koontz
p2423
sg10
VASHLEY BELL
p2424
sa(dp2425
g2
Vhttps://s1.nyt.com/du/books/images/9780553392937.jpg
p2426
sg4
g358
sg6
V9780553392937
p2427
sg8
VRobin Hobb
p2428
sg10
VFOOL'S QUEST
p2429
sa(dp2430
g2
Vhttps://s1.nyt.com/du/books/images/9780385348256.jpg
p2431
sg4
g42
sg6
V9780385348249
p2432
sg8
VJohn Cleese
p2433
sg10
VSO ANYWAY . . .
p2434
sa(dp2435
g2
Vhttp://du.ec2.nytimes.com.s3.amazonaws.com/prd/books/9780316341554.jpg
p2436
sg4
g5
sg6
V9780316341554
p2437
sg8
VKate Atkinson
p2438
sg10
VA GOD IN RUINS
p2439
sa(dp2440
g2
Vhttps://s1.nyt.com/du/books/images/9781439136478.jpg
p2441
sg4
g164
sg6
V9781439114087
p2442
sg8
VJay Winik
p2443
sg10
V1944
p2444
sa(dp2445
g2
Vhttps://s1.nyt.com/du/books/images/9780062457059.jpg
p2446
sg4
VHarperCollins
p2447
sg6
V9780062457059
p2448
sg8
VHolly Madison
p2449
sg10
VTHE VEGAS DIARIES
p2450
sa(dp2451
g2
Vhttps://s1.nyt.com/du/books/images/9780062372123.jpg
p2452
sg4
g1602
sg6
V9780062372123
p2453
sg8
VHolly Madison
p2454
sg10
VDOWN THE RABBIT HOLE
p2455
sa(dp2456
g2
Vhttps://s1.nyt.com/du/books/images/9780698190429.jpg
p2457
sg4
g251
sg6
V9780698190429
p2458
sg8
VAnne Bishop
p2459
sg10
VMARKED IN FLESH
p2460
sa(dp2461
g2
Vhttps://s1.nyt.com/du/books/images/9781609450786.jpg
p2462
sg4
VEuropa Editions
p2463
sg6
V9781609450786
p2464
sg8
VElena Ferrante
p2465
sg10
VMY BRILLIANT FRIEND
p2466
sa(dp2467
g2
Vhttps://s1.nyt.com/du/books/images/9780307958358.jpg
p2468
sg4
g1608
sg6
V9780307958358
p2469
sg8
VJill Lepore
p2470
sg10
VBOOK OF AGES
p2471
sa(dp2472
g2
Vhttps://s1.nyt.com/du/books/images/9781101904008.jpg
p2473
sg4
g146
sg6
V9781101904008
p2474
sg8
VArianna Huffington
p2475
sg10
VTHE SLEEP REVOLUTION
p2476
sa(dp2477
g2
Vhttps://s1.nyt.com/du/books/images/9780804140843.jpg
p2478
sg4
g146
sg6
V9780804140867
p2479
sg8
VArianna Huffington
p2480
sg10
VTHRIVE
p2481
sa(dp2482
g2
Vhttps://s1.nyt.com/du/books/images/9780060565282.jpg
p2483
sg4
g48
sg6
V9780061940576
p2484
sg8
VDouglas Brinkley
p2485
sg10
VTHE WILDERNESS WARRIOR
p2486
sa(dp2487
g2
Vhttps://s1.nyt.com/du/books/images/9780399176760.jpg
p2488
sg4
g54
sg6
V9780698410619
p2489
sg8
VMark Greaney
p2490
sg10
VTOM CLANCY: COMMANDER IN CHIEF
p2491
sa(dp2492
g2
Vhttp://du.ec2.nytimes.com.s3.amazonaws.com/prd/books/9780698185364.jpg
p2493
sg4
g54
sg6
V9780399173356
p2494
sg8
VMark Greaney
p2495
sg10
VTOM CLANCY FULL FORCE AND EFFECT
p2496
sa(dp2497
g2
Vhttps://s1.nyt.com/du/books/images/9781476738024.jpg
p2498
sg4
VSimon & Schuster
p2499
sg6
V9781476738024
p2500
sg8
VFredrik Backman
p2501
sg10
VA MAN CALLED OVE
p2502
sa(dp2503
g2
Vhttps://s1.nyt.com/du/books/images/9780812989076.jpg
p2504
sg4
g305
sg6
V9780812989076
p2505
sg8
VElizabeth Strout
p2506
sg10
VMY NAME IS LUCY BARTON
p2507
sa(dp2508
g2
Vhttps://s1.nyt.com/du/books/images/9780307952950.jpg
p2509
sg4
g1053
sg6
V9780307952950
p2510
sg8
VTom Reiss
p2511
sg10
VTHE BLACK COUNT
p2512
sa(dp2513
g2
Vhttps://s1.nyt.com/du/books/images/9781101622742.jpg
p2514
sg4
g288
sg6
V9780143125471
p2515
sg8
VDaniel James Brown
p2516
sg10
VTHE BOYS IN THE BOAT
p2517
sa(dp2518
g2
Vhttps://s1.nyt.com/du/books/images/9780061877254.jpg
p2519
sg4
g48
sg6
V9780061877254
p2520
sg8
VDaniel James Brown
p2521
sg10
VTHE INDIFFERENT STARS ABOVE
p2522
sa(dp2523
g2
Vhttps://s1.nyt.com/du/books/images/9780307756961.jpg
p2524
sg4
g257
sg6
V9780307756961
p2525
sg8
VKristin Hannah
p2526
sg10
VANGEL FALLS
p2527
sa(dp2528
g2
Vhttp://du.ec2.nytimes.com.s3.amazonaws.com/prd/books/9781466850606.jpg
p2529
sg4
g337
sg6
V9781466850606
p2530
sg8
VKristin Hannah
p2531
sg10
VTHE NIGHTINGALE
p2532
sa(dp2533
g2
Vhttps://s1.nyt.com/du/books/images/9780984504176.jpg
p2534
sg4
VSouth Dakota State Historical Society Press
p2535
sg6
V9780984504176
p2536
sg8
VLaura Ingalls Wilder
p2537
sg10
VPIONEER GIRL
p2538
sa(dp2539
g2
Vhttps://s1.nyt.com/du/books/images/9781595586438.jpg
p2540
sg4
VThe New Press
p2541
sg6
V9781595586438
p2542
sg8
VMichelle Alexander
p2543
sg10
VTHE NEW JIM CROW
p2544
sa(dp2545
g2
Vhttps://s1.nyt.com/du/books/images/9780062342867.jpg
p2546
sg4
VHarper
p2547
sg6
V9780062342867
p2548
sg8
VMichael Schulman
p2549
sg10
VHER AGAIN
p2550
sa(dp2551
g2
Vhttps://s1.nyt.com/du/books/images/9780698190856.jpg
p2552
sg4
g152
sg6
V9780698190856
p2553
sg8
VBrad Taylor
p2554
sg10
VTHE INSIDER THREAT
p2555
sa(dp2556
g2
Vhttps://s1.nyt.com/du/books/images/9780698404144.jpg
p2557
sg4
g152
sg6
V9780698404144
p2558
sg8
VBrad Taylor
p2559
sg10
VTHE FORGOTTEN SOLDIER
p2560
sa(dp2561
g2
Vhttp://du.ec2.nytimes.com.s3.amazonaws.com/prd/books/9780698186057.jpg
p2562
sg4
g152
sg6
V9780698186057
p2563
sg8
VBrad Taylor
p2564
sg10
VNO FORTUNATE SON
p2565
sa(dp2566
g2
Nsg4
g146
sg6
VA00B00S2TO9JY
p2567
sg8
VJulia Kent
p2568
sg10
VSHOPPING FOR A BILLIONAIRE
p2569
sa(dp2570
g2
Vhttps://s1.nyt.com/du/books/images/9781466890404.jpg
p2571
sg4
VTor Books
p2572
sg6
V9781466890404
p2573
sg8
VTerry Goodkind
p2574
sg10
VWARHEART
p2575
sa(dp2576
g2
Vhttps://s1.nyt.com/du/books/images/9781501110351.jpg
p2577
sg4
g135
sg6
V9781501110351
p2578
sg8
VColleen Hoover
p2579
sg10
VNOVEMBER 9
p2580
sa(dp2581
g2
Vhttp://du.ec2.nytimes.com.s3.amazonaws.com/prd/books/9781476791463.jpg
p2582
sg4
g135
sg6
V9781476791463
p2583
sg8
VColleen Hoover
p2584
sg10
VCONFESS
p2585
sa(dp2586
g2
Vhttps://s1.nyt.com/du/books/images/9780385353779.jpg
p2587
sg4
g170
sg6
V9780385353779
p2588
sg8
VGarth Risk Hallberg
p2589
sg10
VCITY ON FIRE
p2590
sa(dp2591
g2
Vhttps://s1.nyt.com/du/books/images/9781101875551.jpg
p2592
sg4
g170
sg6
V9781101875551
p2593
sg8
VJhumpa Lahiri
p2594
sg10
VIN OTHER WORDS
p2595
sa(dp2596
g2
Vhttps://s1.nyt.com/du/books/images/9781101965498.jpg
p2597
sg4
VDel Rey Books
p2598
sg6
V9781101965498
p2599
sg8
VAlan Dean Foster
p2600
sg10
VTHE FORCE AWAKENS
p2601
sa(dp2602
g2
Vhttps://s1.nyt.com/du/books/images/9781476716565.jpg
p2603
sg4
g164
sg6
V9781476716565
p2604
sg8
VRebecca Traister
p2605
sg10
VALL THE SINGLE LADIES
p2606
sa(dp2607
g2
Vhttps://s1.nyt.com/du/books/images/9780062035035.jpg
p2608
sg4
g523
sg6
V9780062035035
p2609
sg8
VMark Urban
p2610
sg10
VTHE MAN WHO BROKE NAPOLEON'S CODES
p2611
sa(dp2612
g2
Vhttps://s1.nyt.com/du/books/images/9780385540629.jpg
p2613
sg4
VDoubleday
p2614
sg6
V9780385540612
p2615
sg8
VChrissie Hynde
p2616
sg10
VRECKLESS
p2617
sa(dp2618
g2
Vhttp://du.ec2.nytimes.com.s3.amazonaws.com/prd/books/9781476791654.jpg
p2619
sg4
VPocket Books
p2620
sg6
V9781476791654
p2621
sg8
VChristina Lauren
p2622
sg10
VBEAUTIFUL BELOVED
p2623
sa(dp2624
g2
Vhttps://s1.nyt.com/du/books/images/9781476777993.jpg
p2625
sg4
g889
sg6
V9781476777993
p2626
sg8
VChristina Lauren
p2627
sg10
VWICKED SEXY LIAR
p2628
sa(dp2629
g2
Vhttps://s1.nyt.com/du/books/images/9781476777955.jpg
p2630
sg4
g642
sg6
V9781476777955
p2631
sg8
VChristina Lauren
p2632
sg10
VDARK WILD NIGHT
p2633
sa(dp2634
g2
Vhttps://s1.nyt.com/du/books/images/9781501131226.jpg
p2635
sg4
g642
sg6
V9781501131226
p2636
sg8
VChristina Lauren
p2637
sg10
VBEAUTIFUL BOSS
p2638
sa(dp2639
g2
Vhttp://du.ec2.nytimes.com.s3.amazonaws.com/prd/books/9781476778013.jpg
p2640
sg4
g164
sg6
V9781476778013
p2641
sg8
VChristina Lauren
p2642
sg10
VBEAUTIFUL SECRET
p2643
sa(dp2644
g2
Vhttps://s1.nyt.com/du/books/images/9780544272880.jpg
p2645
sg4
g413
sg6
V9780544272880
p2646
sg8
VTimothy Egan
p2647
sg10
VTHE IMMORTAL IRISHMAN
p2648
sa(dp2649
g2
Vhttps://s1.nyt.com/du/books/images/9780307594969.jpg
p2650
sg4
g170
sg6
V9780307594969
p2651
sg8
VChristopher McDougall
p2652
sg10
VNATURAL BORN HEROES
p2653
sa(dp2654
g2
Vhttps://s1.nyt.com/du/books/images/9780767925365.jpg
p2655
sg4
g712
sg6
V9780767928427
p2656
sg8
VEric Clapton
p2657
sg10
VCLAPTON
p2658
sa(dp2659
g2
Vhttps://s1.nyt.com/du/books/images/9780385352550.jpg
p2660
sg4
g170
sg6
V9780385352543
p2661
sg8
VOliver Sacks
p2662
sg10
VON THE MOVE
p2663
sa(dp2664
g2
Vhttp://du.ec2.nytimes.com.s3.amazonaws.com/prd/books/9781101621004.jpg
p2665
sg4
g54
sg6
V9781101621004
p2666
sg8
VJayne Ann Krentz
p2667
sg10
VTRUST NO ONE
p2668
sa(dp2669
g2
Vhttps://s1.nyt.com/du/books/images/9780698193666.jpg
p2670
sg4
g83
sg6
V9780698193666
p2671
sg8
VJayne Ann Krentz
p2672
sg10
VSECRET SISTERS
p2673
sa(dp2674
g2
Vhttps://s1.nyt.com/du/books/images/9781455566396.jpg
p2675
sg4
g675
sg6
V9781455566389
p2676
sg8
VSebastian Junger
p2677
sg10
VTRIBE
p2678
sa(dp2679
g2
Vhttp://du.ec2.nytimes.com.s3.amazonaws.com/prd/books/9780451469670.jpg
p2680
sg4
g1447
sg6
V9780698156098
p2681
sg8
VMary Balogh
p2682
sg10
VONLY A PROMISE
p2683
sa(dp2684
g2
Vhttps://s1.nyt.com/du/books/images/9780698156104.jpg
p2685
sg4
g1447
sg6
V9780698156104
p2686
sg8
VMary Balogh
p2687
sg10
VONLY A KISS
p2688
sa(dp2689
g2
Vhttps://s1.nyt.com/du/books/images/9780698411326.jpg
p2690
sg4
g1447
sg6
V9780698411326
p2691
sg8
VMary Balogh
p2692
sg10
VONLY BELOVED
p2693
sa.