(dp0
V25588785
p1
(dp2
Vseries_work_id
p3
(lp4
V747099
p5
asVsid
p6
(lp7
V40546
p8
asVwork_id
p9
V42819813
p10
ssV22747200
p11
(dp12
g3
(lp13
V616377
p14
asg6
(lp15
V46160
p16
asg9
V41166152
p17
ssV22500564
p18
(dp19
g3
(lp20
V525045
p21
aV539374
p22
asg6
(lp23
V61826
p24
aV44283
p25
asg9
V25628593
p26
ssV13586707
p27
(dp28
g3
(lp29
V418940
p30
asg6
(lp31
V87018
p32
asg9
V19174054
p33
ssV27478746
p34
(dp35
g3
(lp36
V580214
p37
asg6
(lp38
V64211
p39
asg9
V31873211
p40
ssV21936645
p41
(dp42
g3
(lp43
V616299
p44
asg6
(lp45
V43581
p46
asg9
V40412738
p47
ssV6980755
p48
(dp49
g3
(lp50
V162462
p51
aV517855
p52
asg6
(lp53
V43943
p54
aV95787
p55
asg9
V2489796
p56
ssV18966819
p57
(dp58
g3
(lp59
V566914
p60
asg6
(lp61
V117100
p62
asg9
V26984955
p63
ssV23453881
p64
(dp65
g3
(lp66
V929050
p67
asg6
(lp68
V182440
p69
asg9
V42788872
p70
ssV25259087
p71
(dp72
g3
(lp73
V606019
p74
asg6
(lp75
V110498
p76
asg9
V40720183
p77
ssV25692997
p78
(dp79
g3
(lp80
V706969
p81
asg6
(lp82
V113400
p83
asg9
V42799162
p84
ssV25542178
p85
(dp86
g3
(lp87
V758698
p88
asg6
(lp89
V150649
p90
asg9
V42819828
p91
ssV24495903
p92
(dp93
g3
(lp94
V692617
p95
asg6
(lp96
V98674
p97
asg9
V42863818
p98
ssV26067200
p99
(dp100
g3
(lp101
V835976
p102
asg6
(lp103
V165167
p104
asg9
V46119106
p105
ssV25430250
p106
(dp107
g3
(lp108
V741951
p109
asg6
(lp110
V43040
p111
asg9
V44610373
p112
ssV26570709
p113
(dp114
g3
(lp115
V697891
p116
asg6
(lp117
V43692
p118
asg9
V42955507
p119
ssV26521632
p120
(dp121
g3
(lp122
V695971
p123
asg6
(lp124
V111874
p125
asg9
V42931863
p126
ssV26370317
p127
(dp128
g3
(lp129
V718033
p130
asg6
(lp131
V112695
p132
asg9
V42179966
p133
ssV25643397
p134
(dp135
g3
(lp136
V692588
p137
asg6
(lp138
V90841
p139
asg9
V42907816
p140
ssV25717804
p141
(dp142
g3
(lp143
V606103
p144
asg6
(lp145
V49083
p146
asg9
V40431461
p147
ssV27220780
p148
(dp149
g3
(lp150
V771878
p151
asg6
(lp152
V51833
p153
asg9
V42099443
p154
ssV26579923
p155
(dp156
g3
(lp157
V730417
p158
asg6
(lp159
V41029
p160
asg9
V44222703
p161
ssV11389875
p162
(dp163
g3
(lp164
V527678
p165
asg6
(lp166
V87392
p167
asg9
V25660399
p168
ssV25604959
p169
(dp170
g3
(lp171
V641962
p172
asg6
(lp173
V90828
p174
asg9
V41852426
p175
ssV23834667
p176
(dp177
g3
(lp178
V712828
p179
asg6
(lp180
V40549
p181
asg9
V43272201
p182
ssV23587120
p183
(dp184
g3
(lp185
V707919
p186
asg6
(lp187
V105851
p188
asg9
V43190257
p189
ssV6980827
p190
(dp191
g3
(lp192
V222019
p193
asg6
(lp194
V55424
p195
asg9
V13560666
p196
ssV13536760
p197
(dp198
g3
(lp199
V273034
p200
asg6
(lp201
V63134
p202
asg9
V16813814
p203
ssV23453905
p204
(dp205
g3
(lp206
V674312
p207
asg6
(lp208
V52637
p209
asg9
V42490126
p210
ssV25060128
p211
(dp212
g3
(lp213
V746523
p214
aV746524
p215
aV903251
p216
asg6
(lp217
V40769
p218
aV44303
p219
aV177714
p220
asg9
V44681694
p221
ssV26084577
p222
(dp223
g3
(lp224
V770967
p225
asg6
(lp226
V153050
p227
asg9
V42099137
p228
ssV25697900
p229
(dp230
g3
(lp231
V756794
p232
asg6
(lp233
V150209
p234
asg9
V42700811
p235
ssV24467095
p236
(dp237
g3
(lp238
V629774
p239
aV616053
p240
asg6
(lp241
V118772
p242
aV44180
p243
asg9
V41132851
p244
ssV7287301
p245
(dp246
g3
(lp247
V769493
p248
asg6
(lp249
V152744
p250
asg9
V1410754
p251
ssV25664321
p252
(dp253
g3
(lp254
V763249
p255
aV748993
p256
asg6
(lp257
V43803
p258
aV105966
p259
asg9
V43458476
p260
ssV23461803
p261
(dp262
g3
(lp263
V599096
p264
aV903250
p265
asg6
(lp266
V40769
p267
aV177714
p268
asg9
V40221440
p269
ssV17405170
p270
(dp271
g3
(lp272
V688050
p273
asg6
(lp274
V137481
p275
asg9
V24243170
p276
ssV26385320
p277
(dp278
g3
(lp279
V712700
p280
asg6
(lp281
V40445
p282
asg9
V43071984
p283
ssV25187801
p284
(dp285
g3
(lp286
V738820
p287
asg6
(lp288
V146971
p289
asg9
V44552981
p290
ssV23604957
p291
(dp292
g3
(lp293
V788551
p294
asg6
(lp295
V52136
p296
asg9
V40437276
p297
ssV13531213
p298
(dp299
g3
(lp300
V694450
p301
asg6
(lp302
V138522
p303
asg9
V18156927
p304
ssV22608060
p305
(dp306
g3
(lp307
V565158
p308
asg6
(lp309
V51153
p310
asg9
V26862974
p311
ssV23460830
p312
(dp313
g3
(lp314
V685158
p315
asg6
(lp316
V136898
p317
asg9
V42753848
p318
ssV26796491
p319
(dp320
g3
(lp321
V751679
p322
asg6
(lp323
V49916
p324
asg9
V44222820
p325
ssV25937666
p326
(dp327
g3
(lp328
V792820
p329
asg6
(lp330
V40549
p331
asg9
V45624823
p332
ssV23290347
p333
(dp334
g3
(lp335
V699969
p336
asg6
(lp337
V139436
p338
asg9
V42847591
p339
ssV24611454
p340
(dp341
g3
(lp342
V723356
p343
asg6
(lp344
V144080
p345
asg9
V43635283
p346
ssV24917371
p347
(dp348
g3
(lp349
V582648
p350
asg6
(lp351
V64795
p352
asg9
V33210811
p353
ssV26334003
p354
(dp355
g3
(lp356
V719856
p357
asg6
(lp358
V57401
p359
asg9
V43702584
p360
ssV25379039
p361
(dp362
g3
(lp363
V657689
p364
asg6
(lp365
V132156
p366
asg9
V40732855
p367
ssV28817172
p368
(dp369
g3
(lp370
V652609
p371
asg6
(lp372
V50324
p373
asg9
V42038040
p374
ssV17883715
p375
(dp376
g3
(lp377
V556465
p378
asg6
(lp379
V115052
p380
asg9
V24173157
p381
ssV20980657
p382
(dp383
g3
(lp384
V596436
p385
asg6
(lp386
V40543
p387
asg9
V40144215
p388
ssV23355896
p389
(dp390
g3
(lp391
V701530
p392
asg6
(lp393
V139630
p394
asg9
V42912504
p395
ssV25125093
p396
(dp397
g3
(lp398
V712633
p399
aV805204
p400
asg6
(lp401
V74500
p402
aV40621
p403
asg9
V43266179
p404
ssV25755150
p405
(dp406
g3
(lp407
V717219
p408
asg6
(lp409
V142893
p410
asg9
V43456626
p411
ssV25372739
p412
(dp413
g3
(lp414
V468201
p415
asg6
(lp416
V40691
p417
asg9
V24064353
p418
ssV23280482
p419
(dp420
g3
(lp421
V832213
p422
aV663198
p423
aV663201
p424
aV663199
p425
asg6
(lp426
V83614
p427
aV95485
p428
aV40858
p429
aV40350
p430
asg9
V42248371
p431
ssV23311341
p432
(dp433
g3
(lp434
V673725
p435
asg6
(lp436
V78155
p437
asg9
V41125529
p438
ssV20764793
p439
(dp440
g3
(lp441
V593253
p442
asg6
(lp443
V40351
p444
asg9
V40106030
p445
ssV22780235
p446
(dp447
g3
(lp448
V544622
p449
asg6
(lp450
V51992
p451
asg9
V25792239
p452
ssV25406286
p453
(dp454
g3
(lp455
V686702
p456
asg6
(lp457
V47858
p458
asg9
V42799135
p459
ssV23735515
p460
(dp461
g3
(lp462
V596436
p463
asg6
(lp464
V40543
p465
asg9
V40144215
p466
ssV23213828
p467
(dp468
g3
(lp469
V750912
p470
aV922562
p471
asg6
(lp472
V41082
p473
aV181268
p474
asg9
V43193467
p475
ssV22752737
p476
(dp477
g3
(lp478
V577997
p479
asg6
(lp480
V94408
p481
asg9
V27633786
p482
ssV25111011
p483
(dp484
g3
(lp485
V751899
p486
asg6
(lp487
V137840
p488
asg9
V44804609
p489
ssV25300817
p490
(dp491
g3
(lp492
V789973
p493
asg6
(lp494
V43418
p495
asg9
V44729861
p496
ssV26043434
p497
(dp498
g3
(lp499
V715831
p500
asg6
(lp501
V79180
p502
asg9
V42813606
p503
ssV24868791
p504
(dp505
g3
(lp506
V737774
p507
asg6
(lp508
V101923
p509
asg9
V44222857
p510
ssV27221524
p511
(dp512
g3
(lp513
V751899
p514
asg6
(lp515
V137840
p516
asg9
V44804609
p517
ssV21936663
p518
(dp519
g3
(lp520
V713811
p521
asg6
(lp522
V89784
p523
asg9
V43312432
p524
ssV25205404
p525
(dp526
g3
(lp527
V845505
p528
asg6
(lp529
V167001
p530
asg9
V44918079
p531
ssV22609800
p532
(dp533
g3
(lp534
V702325
p535
asg6
(lp536
V139800
p537
asg9
V41125528
p538
ssV24892864
p539
(dp540
g3
(lp541
V751870
p542
asg6
(lp543
V41261
p544
asg9
V44541436
p545
ssV24392693
p546
(dp547
g3
(lp548
V738914
p549
asg6
(lp550
V40687
p551
asg9
V44279371
p552
ssV26542607
p553
(dp554
g3
(lp555
V747120
p556
asg6
(lp557
V55369
p558
asg9
V44688733
p559
ssV24944823
p560
(dp561
g3
(lp562
V744149
p563
asg6
(lp564
V53023
p565
asg9
V44603249
p566
ssV25067011
p567
(dp568
g3
(lp569
V750127
p570
asg6
(lp571
V98398
p572
asg9
V44751809
p573
ssV22552546
p574
(dp575
g3
(lp576
V617491
p577
asg6
(lp578
V119196
p579
asg9
V41194522
p580
ssV26248418
p581
(dp582
g3
(lp583
V742165
p584
asg6
(lp585
V40882
p586
asg9
V44598633
p587
ssV13531257
p588
(dp589
g3
(lp590
V447984
p591
asg6
(lp592
V92841
p593
asg9
V18713722
p594
ssV27162572
p595
(dp596
g3
(lp597
V784139
p598
asg6
(lp599
V41029
p600
asg9
V44222878
p601
ssV26250362
p602
(dp603
g3
(lp604
V805235
p605
asg6
(lp606
V64253
p607
asg9
V45949900
p608
ssV22747204
p609
(dp610
g3
(lp611
V610557
p612
asg6
(lp613
V41620
p614
asg9
V40816611
p615
ssV28552415
p616
(dp617
g3
(lp618
V747783
p619
asg6
(lp620
V144827
p621
asg9
V44707128
p622
ssV21856122
p623
(dp624
g3
(lp625
V760259
p626
aV757463
p627
asg6
(lp628
V43059
p629
aV150353
p630
asg9
V40640797
p631
ssV22747208
p632
(dp633
g3
(lp634
V498618
p635
asg6
(lp636
V43672
p637
asg9
V21396257
p638
ssV24485430
p639
(dp640
g3
(lp641
V775056
p642
asg6
(lp643
V55369
p644
asg9
V45343765
p645
ssV18340095
p646
(dp647
g3
(lp648
V895759
p649
asg6
(lp650
V176319
p651
asg9
V21825181
p652
ssV22926807
p653
(dp654
g3
(lp655
V654680
p656
asg6
(lp657
V41421
p658
asg9
V25781259
p659
ssV24331478
p660
(dp661
g3
(lp662
V821698
p663
asg6
(lp664
V162445
p665
asg9
V43110668
p666
ssV23398900
p667
(dp668
g3
(lp669
V688457
p670
asg6
(lp671
V41454
p672
asg9
V42797145
p673
ssV13153799
p674
(dp675
g3
(lp676
V288263
p677
asg6
(lp678
V49600
p679
asg9
V17251309
p680
ssV25650432
p681
(dp682
g3
(lp683
V675324
p684
asg6
(lp685
V98674
p686
asg9
V42462015
p687
ssV22431058
p688
(dp689
g3
(lp690
V641961
p691
asg6
(lp692
V90828
p693
asg9
V41852445
p694
ssV26086440
p695
(dp696
g3
(lp697
V778377
p698
aV793267
p699
asg6
(lp700
V41089
p701
aV135431
p702
asg9
V43266286
p703
ssV25630085
p704
(dp705
g3
(lp706
V780793
p707
asg6
(lp708
V137481
p709
asg9
V45436495
p710
ssV26206821
p711
(dp712
g3
(lp713
V747103
p714
asg6
(lp715
V79180
p716
asg9
V44044891
p717
ssV18780018
p718
(dp719
g3
(lp720
V593220
p721
asg6
(lp722
V41192
p723
asg9
V40105040
p724
ssV25134015
p725
(dp726
g3
(lp727
V834571
p728
aV752916
p729
aV757128
p730
asg6
(lp731
V164875
p732
aV149269
p733
aV150234
p734
asg9
V44828548
p735
ssV22859222
p736
(dp737
g3
(lp738
V643945
p739
asg6
(lp740
V66428
p741
asg9
V41125534
p742
ssV24388490
p743
(dp744
g3
(lp745
V740711
p746
asg6
(lp747
V126823
p748
asg9
V43129034
p749
ssV23308134
p750
(dp751
g3
(lp752
V653740
p753
asg6
(lp754
V107860
p755
asg9
V42090391
p756
ssV25374688
p757
(dp758
g3
(lp759
V717220
p760
asg6
(lp761
V142893
p762
asg9
V42462101
p763
ssV18052918
p764
(dp765
g3
(lp766
V552173
p767
asg6
(lp768
V111792
p769
asg9
V25337597
p770
ssV6603335
p771
(dp772
g3
(lp773
V147003
p774
asg6
(lp775
V41620
p776
asg9
V216590
p777
ssV23700728
p778
(dp779
g3
(lp780
V735120
p781
asg6
(lp782
V78270
p783
asg9
V43310029
p784
ssV26368966
p785
(dp786
g3
(lp787
V707407
p788
asg6
(lp789
V45016
p790
asg9
V42742483
p791
ssV24848346
p792
(dp793
g3
(lp794
V645533
p795
asg6
(lp796
V130530
p797
asg9
V41907960
p798
ssV27465987
p799
(dp800
g3
(lp801
V750127
p802
asg6
(lp803
V98398
p804
asg9
V44751809
p805
ssV24875396
p806
(dp807
g3
(lp808
V752624
p809
asg6
(lp810
V42640
p811
asg9
V44523713
p812
ssV24869671
p813
(dp814
g3
(lp815
V611230
p816
asg6
(lp817
V40643
p818
asg9
V40864267
p819
ssV24397015
p820
(dp821
g3
(lp822
V756794
p823
asg6
(lp824
V150209
p825
asg9
V42700811
p826
ssV23568175
p827
(dp828
g3
(lp829
V683146
p830
aV763394
p831
asg6
(lp832
V114440
p833
aV54099
p834
asg9
V42704733
p835
ssV27287477
p836
(dp837
g3
(lp838
V736534
p839
asg6
(lp840
V57896
p841
asg9
V44222940
p842
ssV20768868
p843
(dp844
g3
(lp845
V593253
p846
asg6
(lp847
V40351
p848
asg9
V40106030
p849
ssV25930861
p850
(dp851
g3
(lp852
V735878
p853
asg6
(lp854
V146340
p855
asg9
V44458285
p856
ssV27887707
p857
(dp858
g3
(lp859
V723356
p860
asg6
(lp861
V144080
p862
asg9
V43635283
p863
ssV23210097
p864
(dp865
g3
(lp866
V865733
p867
asg6
(lp868
V170954
p869
asg9
V42206903
p870
ssV25733687
p871
(dp872
g3
(lp873
V781525
p874
asg6
(lp875
V63134
p876
asg9
V45460946
p877
ssV23019295
p878
(dp879
g3
(lp880
V793463
p881
asg6
(lp882
V102787
p883
asg9
V42827960
p884
ssV24917345
p885
(dp886
g3
(lp887
V645727
p888
asg6
(lp889
V112705
p890
asg9
V41912217
p891
ssV23295182
p892
(dp893
g3
(lp894
V580693
p895
asg6
(lp896
V52515
p897
asg9
V32035880
p898
ssV13531384
p899
(dp900
g3
(lp901
V556464
p902
asg6
(lp903
V115052
p904
asg9
V16690598
p905
ssV26333998
p906
(dp907
g3
(lp908
V726950
p909
asg6
(lp910
V98674
p911
asg9
V43893277
p912
ssV25658631
p913
(dp914
g3
(lp915
V742164
p916
asg6
(lp917
V138181
p918
asg9
V44612006
p919
ssV23437291
p920
(dp921
g3
(lp922
V698681
p923
asg6
(lp924
V106249
p925
asg9
V43002071
p926
ssV20452210
p927
(dp928
g3
(lp929
V657612
p930
asg6
(lp931
V40687
p932
asg9
V31832015
p933
ssV27201002
p934
(dp935
g3
(lp936
V720915
p937
asg6
(lp938
V92715
p939
asg9
V43788815
p940
ssV25241274
p941
(dp942
g3
(lp943
V835975
p944
asg6
(lp945
V165167
p946
asg9
V44960908
p947
ssV23492589
p948
(dp949
g3
(lp950
V687724
p951
asg6
(lp952
V137422
p953
asg9
V41884478
p954
ssV28267468
p955
(dp956
g3
(lp957
V869668
p958
aV869688
p959
aV768439
p960
asg6
(lp961
V171703
p962
aV171704
p963
aV49079
p964
asg9
V44904805
p965
ssV25267715
p966
(dp967
g3
(lp968
V740732
p969
asg6
(lp970
V124980
p971
asg9
V43600883
p972
ssV17286958
p973
(dp974
g3
(lp975
V688050
p976
asg6
(lp977
V137481
p978
asg9
V24243170
p979
ssV17331349
p980
(dp981
g3
(lp982
V746777
p983
asg6
(lp984
V102787
p985
asg9
V24034629
p986
ssV23532065
p987
(dp988
g3
(lp989
V597707
p990
asg6
(lp991
V87307
p992
asg9
V40105061
p993
ssV6984678
p994
(dp995
g3
(lp996
V157411
p997
asg6
(lp998
V43790
p999
asg9
V1466917
p1000
ssV23359216
p1001
(dp1002
g3
(lp1003
V629777
p1004
aV722500
p1005
asg6
(lp1006
V118772
p1007
aV44180
p1008
asg9
V41371684
p1009
ssV25957712
p1010
(dp1011
g3
(lp1012
V729011
p1013
asg6
(lp1014
V108050
p1015
asg9
V43699375
p1016
ssV25066590
p1017
(dp1018
g3
(lp1019
V750125
p1020
asg6
(lp1021
V40543
p1022
asg9
V44146594
p1023
ssV20829029
p1024
(dp1025
g3
(lp1026
V895759
p1027
asg6
(lp1028
V176319
p1029
asg9
V21825181
p1030
ssV25614660
p1031
(dp1032
g3
(lp1033
V779252
p1034
asg6
(lp1035
V99019
p1036
asg9
V45424848
p1037
ssV25659234
p1038
(dp1039
g3
(lp1040
V716391
p1041
asg6
(lp1042
V51419
p1043
asg9
V43457987
p1044
ssV24963343
p1045
(dp1046
g3
(lp1047
V692144
p1048
asg6
(lp1049
V92715
p1050
asg9
V42901335
p1051
ssV24504691
p1052
(dp1053
g3
(lp1054
V677751
p1055
asg6
(lp1056
V127331
p1057
asg9
V42667431
p1058
ssV27066316
p1059
(dp1060
g3
(lp1061
V730418
p1062
asg6
(lp1063
V112607
p1064
asg9
V44223038
p1065
ssV26013738
p1066
(dp1067
g3
(lp1068
V778084
p1069
aV778090
p1070
asg6
(lp1071
V52529
p1072
aV154421
p1073
asg9
V44222776
p1074
ssV28129210
p1075
(dp1076
g3
(lp1077
V752624
p1078
asg6
(lp1079
V42640
p1080
asg9
V44523713
p1081
ssV16049611
p1082
(dp1083
g3
(lp1084
V698035
p1085
asg6
(lp1086
V138181
p1087
asg9
V21823341
p1088
ssV26122226
p1089
(dp1090
g3
(lp1091
V619326
p1092
asg6
(lp1093
V116838
p1094
asg9
V41246718
p1095
ssV26334002
p1096
(dp1097
g3
(lp1098
V744149
p1099
asg6
(lp1100
V53023
p1101
asg9
V44603249
p1102
ssV24875378
p1103
(dp1104
g3
(lp1105
V835973
p1106
asg6
(lp1107
V44044
p1108
asg9
V44523691
p1109
ssV23519609
p1110
(dp1111
g3
(lp1112
V698424
p1113
asg6
(lp1114
V42804
p1115
asg9
V42461503
p1116
ssV25872344
p1117
(dp1118
g3
(lp1119
V881960
p1120
asg6
(lp1121
V173844
p1122
asg9
V45656922
p1123
ssV24700323
p1124
(dp1125
g3
(lp1126
V741954
p1127
asg6
(lp1128
V40351
p1129
asg9
V44319513
p1130
ssV25443305
p1131
(dp1132
g3
(lp1133
V721308
p1134
asg6
(lp1135
V41404
p1136
asg9
V42819638
p1137
ssV23834720
p1138
(dp1139
g3
(lp1140
V716379
p1141
asg6
(lp1142
V125350
p1143
asg9
V43446338
p1144
ssV13349409
p1145
(dp1146
g3
(lp1147
V301233
p1148
asg6
(lp1149
V63134
p1150
asg9
V18034963
p1151
ssV23596474
p1152
(dp1153
g3
(lp1154
V679130
p1155
asg6
(lp1156
V66627
p1157
asg9
V42075406
p1158
ssV23450106
p1159
(dp1160
g3
(lp1161
V677186
p1162
asg6
(lp1163
V126176
p1164
asg9
V42360941
p1165
ssV22825382
p1166
(dp1167
g3
(lp1168
V869666
p1169
aV869686
p1170
aV682240
p1171
aV788021
p1172
asg6
(lp1173
V171703
p1174
aV171704
p1175
aV49079
p1176
aV63669
p1177
asg9
V42379767
p1178
ssV22836630
p1179
(dp1180
g3
(lp1181
V560079
p1182
aV761290
p1183
asg6
(lp1184
V44237
p1185
aV151179
p1186
asg9
V26634437
p1187
ssV23568174
p1188
(dp1189
g3
(lp1190
V753786
p1191
asg6
(lp1192
V92841
p1193
asg9
V43959156
p1194
ssV25258207
p1195
(dp1196
g3
(lp1197
V693225
p1198
asg6
(lp1199
V44598
p1200
asg9
V27669153
p1201
ssV28208252
p1202
(dp1203
g3
(lp1204
V749126
p1205
asg6
(lp1206
V45562
p1207
asg9
V44740446
p1208
ssV25529032
p1209
(dp1210
g3
(lp1211
V682810
p1212
asg6
(lp1213
V136470
p1214
asg9
V42427416
p1215
ssV25644601
p1216
(dp1217
g3
(lp1218
V781525
p1219
asg6
(lp1220
V63134
p1221
asg9
V45460946
p1222
ssV25243409
p1223
(dp1224
g3
(lp1225
V474902
p1226
asg6
(lp1227
V47942
p1228
asg9
V24252421
p1229
ssV25026542
p1230
(dp1231
g3
(lp1232
V747512
p1233
asg6
(lp1234
V148345
p1235
asg9
V44693518
p1236
ssV25300823
p1237
(dp1238
g3
(lp1239
V715622
p1240
asg6
(lp1241
V43556
p1242
asg9
V43272180
p1243
ssV25721389
p1244
(dp1245
g3
(lp1246
V678991
p1247
asg6
(lp1248
V97353
p1249
asg9
V41947924
p1250
ssV25074850
p1251
(dp1252
g3
(lp1253
V693225
p1254
asg6
(lp1255
V44598
p1256
asg9
V27669153
p1257
ssV23941397
p1258
(dp1259
g3
(lp1260
V446889
p1261
aV598627
p1262
aV675268
p1263
asg6
(lp1264
V40910
p1265
aV123082
p1266
aV135117
p1267
asg9
V21855448
p1268
ssV23732486
p1269
(dp1270
g3
(lp1271
V896185
p1272
asg6
(lp1273
V176395
p1274
asg9
V21754877
p1275
ssV25755119
p1276
(dp1277
g3
(lp1278
V703791
p1279
asg6
(lp1280
V47858
p1281
asg9
V43082562
p1282
ssV24817626
p1283
(dp1284
g3
(lp1285
V735878
p1286
asg6
(lp1287
V146340
p1288
asg9
V44458285
p1289
ssV22453035
p1290
(dp1291
g3
(lp1292
V687724
p1293
asg6
(lp1294
V137422
p1295
asg9
V41884478
p1296
ssV21944039
p1297
(dp1298
g3
(lp1299
V688051
p1300
asg6
(lp1301
V137481
p1302
asg9
V41797265
p1303
ssV26063809
p1304
(dp1305
g3
(lp1306
V744147
p1307
asg6
(lp1308
V47858
p1309
asg9
V44603266
p1310
ssV9230209
p1311
(dp1312
g3
(lp1313
V145261
p1314
asg6
(lp1315
V40843
p1316
asg9
V58217
p1317
ssV25387351
p1318
(dp1319
g3
(lp1320
V904418
p1321
asg6
(lp1322
V177868
p1323
asg9
V45137948
p1324
ssV23512999
p1325
(dp1326
g3
(lp1327
V901754
p1328
asg6
(lp1329
V177403
p1330
asg9
V43116154
p1331
ssV22747310
p1332
(dp1333
g3
(lp1334
V372787
p1335
asg6
(lp1336
V46817
p1337
asg9
V19237752
p1338
ssV23575419
p1339
(dp1340
g3
(lp1341
V500674
p1342
asg6
(lp1343
V73778
p1344
asg9
V25032500
p1345
ssV22911356
p1346
(dp1347
g3
(lp1348
V494614
p1349
asg6
(lp1350
V87572
p1351
asg9
V21533073
p1352
ssV25143992
p1353
(dp1354
g3
(lp1355
V615741
p1356
asg6
(lp1357
V99902
p1358
asg9
V41128288
p1359
ssV23434009
p1360
(dp1361
g3
(lp1362
V698425
p1363
aV698433
p1364
asg6
(lp1365
V41261
p1366
aV41643
p1367
asg9
V42999423
p1368
ssV23941375
p1369
(dp1370
g3
(lp1371
V688438
p1372
asg6
(lp1373
V132911
p1374
asg9
V42580727
p1375
ssV25187635
p1376
(dp1377
g3
(lp1378
V615322
p1379
asg6
(lp1380
V41963
p1381
asg9
V41120683
p1382
ssV23450112
p1383
(dp1384
g3
(lp1385
V746255
p1386
asg6
(lp1387
V40643
p1388
asg9
V42461529
p1389
ssV22675963
p1390
(dp1391
g3
(lp1392
V597707
p1393
asg6
(lp1394
V87307
p1395
asg9
V40105061
p1396
ssV27432625
p1397
(dp1398
g3
(lp1399
V732652
p1400
asg6
(lp1401
V41374
p1402
asg9
V44222635
p1403
ssV25361426
p1404
(dp1405
g3
(lp1406
V689864
p1407
asg6
(lp1408
V41170
p1409
asg9
V42819819
p1410
ssV24467084
p1411
(dp1412
g3
(lp1413
V758702
p1414
asg6
(lp1415
V150651
p1416
asg9
V42580719
p1417
ssV24504692
p1418
(dp1419
g3
(lp1420
V667944
p1421
asg6
(lp1422
V72912
p1423
asg9
V41969586
p1424
ssV26048701
p1425
(dp1426
g3
(lp1427
V761983
p1428
asg6
(lp1429
V46845
p1430
asg9
V45062269
p1431
ssV26385324
p1432
(dp1433
g3
(lp1434
V656891
p1435
asg6
(lp1436
V41048
p1437
asg9
V42097845
p1438
ssV24950845
p1439
(dp1440
g3
(lp1441
V741951
p1442
asg6
(lp1443
V43040
p1444
asg9
V44610373
p1445
ssV24726584
p1446
(dp1447
g3
(lp1448
V651899
p1449
asg6
(lp1450
V41374
p1451
asg9
V41969115
p1452
ssV22890098
p1453
(dp1454
g3
(lp1455
V606501
p1456
asg6
(lp1457
V121142
p1458
asg9
V40747882
p1459
ssV22143906
p1460
(dp1461
g3
(lp1462
V688051
p1463
asg6
(lp1464
V137481
p1465
asg9
V41797265
p1466
ssV26227315
p1467
(dp1468
g3
(lp1469
V784649
p1470
asg6
(lp1471
V55425
p1472
asg9
V44759727
p1473
ssV22723178
p1474
(dp1475
g3
(lp1476
V559330
p1477
asg6
(lp1478
V43558
p1479
asg9
V26625560
p1480
ssV25209364
p1481
(dp1482
g3
(lp1483
V805118
p1484
asg6
(lp1485
V159447
p1486
asg9
V42799866
p1487
ssV24727784
p1488
(dp1489
g3
(lp1490
V634018
p1491
asg6
(lp1492
V41874
p1493
asg9
V41367297
p1494
ssV25199272
p1495
(dp1496
g3
(lp1497
V652615
p1498
asg6
(lp1499
V46680
p1500
asg9
V42038179
p1501
ssV23434061
p1502
(dp1503
g3
(lp1504
V721522
p1505
asg6
(lp1506
V49378
p1507
asg9
V42999465
p1508
ssV25241477
p1509
(dp1510
g3
(lp1511
V835975
p1512
asg6
(lp1513
V165167
p1514
asg9
V44960908
p1515
ssV24906348
p1516
(dp1517
g3
(lp1518
V665234
p1519
asg6
(lp1520
V41029
p1521
asg9
V42038145
p1522
ssV18635622
p1523
(dp1524
g3
(lp1525
V497520
p1526
asg6
(lp1527
V49615
p1528
asg9
V24992268
p1529
ssV26796490
p1530
(dp1531
g3
(lp1532
V667665
p1533
asg6
(lp1534
V41089
p1535
asg9
V41497379
p1536
ssV27240151
p1537
(dp1538
g3
(lp1539
V729669
p1540
asg6
(lp1541
V96071
p1542
asg9
V44188557
p1543
ssV25073554
p1544
(dp1545
g3
(lp1546
V566446
p1547
aV599769
p1548
asg6
(lp1549
V45135
p1550
aV123299
p1551
asg9
V26949988
p1552
ssV25531875
p1553
(dp1554
g3
(lp1555
V557409
p1556
asg6
(lp1557
V40589
p1558
asg9
V24508931
p1559
ssV25976125
p1560
(dp1561
g3
(lp1562
V660395
p1563
asg6
(lp1564
V57896
p1565
asg9
V42170953
p1566
ssV26521568
p1567
(dp1568
g3
(lp1569
V670366
p1570
asg6
(lp1571
V134123
p1572
asg9
V42099409
p1573
ssV27220852
p1574
(dp1575
g3
(lp1576
V718508
p1577
asg6
(lp1578
V40483
p1579
asg9
V43602301
p1580
ssV24727422
p1581
(dp1582
g3
(lp1583
V571567
p1584
asg6
(lp1585
V40549
p1586
asg9
V27228790
p1587
ssV27886833
p1588
(dp1589
g3
(lp1590
V750125
p1591
asg6
(lp1592
V40543
p1593
asg9
V44146594
p1594
ssV27407633
p1595
(dp1596
g3
(lp1597
V717221
p1598
asg6
(lp1599
V126019
p1600
asg9
V43082788
p1601
ssV25194147
p1602
(dp1603
g3
(lp1604
V869668
p1605
aV869688
p1606
aV768439
p1607
asg6
(lp1608
V171703
p1609
aV171704
p1610
aV49079
p1611
asg9
V44904805
p1612
ssV25667215
p1613
(dp1614
g3
(lp1615
V728759
p1616
asg6
(lp1617
V48123
p1618
asg9
V43458129
p1619
ssV25979615
p1620
(dp1621
g3
(lp1622
V718015
p1623
asg6
(lp1624
V40469
p1625
asg9
V42742312
p1626
ssV25999541
p1627
(dp1628
g3
(lp1629
V787935
p1630
asg6
(lp1631
V95557
p1632
asg9
V45551241
p1633
ssV21805579
p1634
(dp1635
g3
(lp1636
V546544
p1637
asg6
(lp1638
V105846
p1639
asg9
V26116275
p1640
ssV22572547
p1641
(dp1642
g3
(lp1643
V651913
p1644
asg6
(lp1645
V44279
p1646
asg9
V41125566
p1647
ssV25788411
p1648
(dp1649
g3
(lp1650
V698297
p1651
asg6
(lp1652
V103200
p1653
asg9
V41913658
p1654
ssV26515167
p1655
(dp1656
g3
(lp1657
V624292
p1658
asg6
(lp1659
V54888
p1660
asg9
V26542333
p1661
ssV23256125
p1662
(dp1663
g3
(lp1664
V678541
p1665
asg6
(lp1666
V49600
p1667
asg9
V42578935
p1668
ssV22999164
p1669
(dp1670
g3
(lp1671
V679266
p1672
asg6
(lp1673
V57929
p1674
asg9
V42563922
p1675
ssV25659220
p1676
(dp1677
g3
(lp1678
V784443
p1679
asg6
(lp1680
V155551
p1681
asg9
V43458052
p1682
ssV26155910
p1683
(dp1684
g3
(lp1685
V473730
p1686
asg6
(lp1687
V98053
p1688
asg9
V24239884
p1689
ssV10818853
p1690
(dp1691
g3
(lp1692
V273035
p1693
asg6
(lp1694
V63134
p1695
asg9
V15732562
p1696
ssV26868605
p1697
(dp1698
g3
(lp1699
V580865
p1700
asg6
(lp1701
V47308
p1702
asg9
V32001786
p1703
ssV24314741
p1704
(dp1705
g3
(lp1706
V726950
p1707
asg6
(lp1708
V98674
p1709
asg9
V43893277
p1710
ssV21936652
p1711
(dp1712
g3
(lp1713
V617490
p1714
asg6
(lp1715
V119196
p1716
asg9
V41194520
p1717
ssV26370353
p1718
(dp1719
g3
(lp1720
V743324
p1721
asg6
(lp1722
V51312
p1723
asg9
V43981459
p1724
ssV25010281
p1725
(dp1726
g3
(lp1727
V746523
p1728
aV746524
p1729
aV903251
p1730
asg6
(lp1731
V40769
p1732
aV44303
p1733
aV177714
p1734
asg9
V44681694
p1735
ssV23165068
p1736
(dp1737
g3
(lp1738
V769494
p1739
asg6
(lp1740
V152744
p1741
asg9
V42459928
p1742
ssV16246628
p1743
(dp1744
g3
(lp1745
V523506
p1746
asg6
(lp1747
V107860
p1748
asg9
V21908548
p1749
ssV26384777
p1750
(dp1751
g3
(lp1752
V614018
p1753
asg6
(lp1754
V125680
p1755
asg9
V41049008
p1756
ssV13521296
p1757
(dp1758
g3
(lp1759
V896185
p1760
asg6
(lp1761
V176395
p1762
asg9
V21754877
p1763
ssV25267699
p1764
(dp1765
g3
(lp1766
V658696
p1767
asg6
(lp1768
V124980
p1769
asg9
V42172732
p1770
ssV24701732
p1771
(dp1772
g3
(lp1773
V729745
p1774
asg6
(lp1775
V42154
p1776
asg9
V44194211
p1777
ssV25215947
p1778
(dp1779
g3
(lp1780
V567317
p1781
asg6
(lp1782
V43040
p1783
asg9
V27026852
p1784
ssV25300845
p1785
(dp1786
g3
(lp1787
V904418
p1788
asg6
(lp1789
V177868
p1790
asg9
V45137948
p1791
ssV25989554
p1792
(dp1793
g3
(lp1794
V740737
p1795
asg6
(lp1796
V47858
p1797
asg9
V43919924
p1798
ssV25002969
p1799
(dp1800
g3
(lp1801
V736929
p1802
asg6
(lp1803
V58713
p1804
asg9
V43457942
p1805
ssV28016420
p1806
(dp1807
g3
(lp1808
V668700
p1809
aV668701
p1810
aV864919
p1811
asg6
(lp1812
V41911
p1813
aV59162
p1814
aV170846
p1815
asg9
V41511022
p1816
ssV16613259
p1817
(dp1818
g3
(lp1819
V163588
p1820
asg6
(lp1821
V43670
p1822
asg9
V2756567
p1823
ssV25870753
p1824
(dp1825
g3
(lp1826
V697895
p1827
asg6
(lp1828
V40971
p1829
asg9
V42955194
p1830
ssV26333638
p1831
(dp1832
g3
(lp1833
V712634
p1834
asg6
(lp1835
V57401
p1836
asg9
V43243534
p1837
ssV24684895
p1838
(dp1839
g3
(lp1840
V928615
p1841
asg6
(lp1842
V43198
p1843
asg9
V26542469
p1844
ssV26795569
p1845
(dp1846
g3
(lp1847
V828117
p1848
asg6
(lp1849
V163568
p1850
asg9
V44460264
p1851
ss.